---
triple:          'arm64-apple-darwin'
binary-path:     'out/basetest'
relocations:
  - { offsetInCU: 0x4402, offset: 0x4402, size: 0x8, addend: 0x0, symName: __ZNSt3__124__put_character_sequenceB8ue170006IcNS_11char_traitsIcEEEERNS_13basic_ostreamIT_T0_EES7_PKS4_m, symObjAddr: 0x6EC, symBinAddr: 0x100001700, symSize: 0x164 }
  - { offsetInCU: 0x9015, offset: 0x9015, size: 0x8, addend: 0x0, symName: __ZNSt3__120__throw_length_errorB8ue170006EPKc, symObjAddr: 0x66C, symBinAddr: 0x100001680, symSize: 0x50 }
  - { offsetInCU: 0x9053, offset: 0x9053, size: 0x8, addend: 0x0, symName: __ZNSt3__116__pad_and_outputB8ue170006IcNS_11char_traitsIcEEEENS_19ostreambuf_iteratorIT_T0_EES6_PKS4_S8_S8_RNS_8ios_baseES4_, symObjAddr: 0x850, symBinAddr: 0x100001864, symSize: 0x194 }
  - { offsetInCU: 0xD0B5, offset: 0xD0B5, size: 0x8, addend: 0x0, symName: _main, symObjAddr: 0x0, symBinAddr: 0x100001014, symSize: 0x57C }
  - { offsetInCU: 0xF37B, offset: 0xF37B, size: 0x8, addend: 0x0, symName: __ZN15KrakenRequesterD1Ev, symObjAddr: 0x57C, symBinAddr: 0x100001590, symSize: 0x58 }
  - { offsetInCU: 0xF5CE, offset: 0xF5CE, size: 0x8, addend: 0x0, symName: __ZN17CoinbaseRequesterD1Ev, symObjAddr: 0x5D4, symBinAddr: 0x1000015E8, symSize: 0x84 }
  - { offsetInCU: 0xFBAB, offset: 0xFBAB, size: 0x8, addend: 0x0, symName: __ZNKSt3__112basic_stringIcNS_11char_traitsIcEENS_9allocatorIcEEE20__throw_length_errorB8ue170006Ev, symObjAddr: 0x658, symBinAddr: 0x10000166C, symSize: 0x14 }
  - { offsetInCU: 0xFBD5, offset: 0xFBD5, size: 0x8, addend: 0x0, symName: __ZNSt3__120__throw_length_errorB8ue170006EPKc, symObjAddr: 0x66C, symBinAddr: 0x100001680, symSize: 0x50 }
  - { offsetInCU: 0xFBE0, offset: 0xFBE0, size: 0x8, addend: 0x0, symName: __ZNSt12length_errorC1B8ue170006EPKc, symObjAddr: 0x6BC, symBinAddr: 0x1000016D0, symSize: 0x24 }
  - { offsetInCU: 0x1407, offset: 0x113E6, size: 0x8, addend: 0x0, symName: __ZN8nlohmann16json_abi_v3_11_36detail9from_jsonINS0_10basic_jsonINSt3__13mapENS4_6vectorENS4_12basic_stringIcNS4_11char_traitsIcEENS4_9allocatorIcEEEEbxydSA_NS0_14adl_serializerENS6_IhNSA_IhEEEEvEEEEvRKT_RNSH_8string_tE, symObjAddr: 0xA00, symBinAddr: 0x100002364, symSize: 0xE0 }
  - { offsetInCU: 0x1828, offset: 0x11807, size: 0x8, addend: 0x0, symName: __ZN8nlohmann16json_abi_v3_11_36detail6concatINSt3__112basic_stringIcNS3_11char_traitsIcEENS3_9allocatorIcEEEEJRA29_KcPSA_EEET_DpOT0_, symObjAddr: 0xCB4, symBinAddr: 0x100002618, symSize: 0xA0 }
  - { offsetInCU: 0x1CC5, offset: 0x11CA4, size: 0x8, addend: 0x0, symName: __ZN8nlohmann16json_abi_v3_11_36detail6concatINSt3__112basic_stringIcNS3_11char_traitsIcEENS3_9allocatorIcEEEEJRA17_KcRKS9_cS9_RA3_SA_EEET_DpOT0_, symObjAddr: 0xEB0, symBinAddr: 0x100002814, symSize: 0x140 }
  - { offsetInCU: 0x22CA, offset: 0x122A9, size: 0x8, addend: 0x0, symName: __ZN8nlohmann16json_abi_v3_11_36detail6concatINSt3__112basic_stringIcNS3_11char_traitsIcEENS3_9allocatorIcEEEEJS9_S9_RKS9_EEET_DpOT0_, symObjAddr: 0xDB0, symBinAddr: 0x100002714, symSize: 0x100 }
  - { offsetInCU: 0x3609, offset: 0x135E8, size: 0x8, addend: 0x0, symName: __ZN8nlohmann16json_abi_v3_11_36detail6concatINSt3__112basic_stringIcNS3_11char_traitsIcEENS3_9allocatorIcEEEEJS9_RA12_KcS9_RA3_SA_S9_RKS9_EEET_DpOT0_, symObjAddr: 0xB4DC, symBinAddr: 0x10000CE40, symSize: 0x1A8 }
  - { offsetInCU: 0x4054, offset: 0x14033, size: 0x8, addend: 0x0, symName: __ZN8nlohmann16json_abi_v3_11_36detail6concatINSt3__112basic_stringIcNS3_11char_traitsIcEENS3_9allocatorIcEEEEJPKcRA15_SA_S9_cEEET_DpOT0_, symObjAddr: 0xB890, symBinAddr: 0x10000D1F4, symSize: 0xFC }
  - { offsetInCU: 0x44FD, offset: 0x144DC, size: 0x8, addend: 0x0, symName: __ZN8nlohmann16json_abi_v3_11_36detail6concatINSt3__112basic_stringIcNS3_11char_traitsIcEENS3_9allocatorIcEEEEJRA24_KcS9_EEET_DpOT0_, symObjAddr: 0x84C0, symBinAddr: 0x100009E24, symSize: 0xAC }
  - { offsetInCU: 0x48DB, offset: 0x148BA, size: 0x8, addend: 0x0, symName: __ZN8nlohmann16json_abi_v3_11_36detail6concatINSt3__112basic_stringIcNS3_11char_traitsIcEENS3_9allocatorIcEEEEJRA23_KcS9_EEET_DpOT0_, symObjAddr: 0xA624, symBinAddr: 0x10000BF88, symSize: 0xAC }
  - { offsetInCU: 0x4D86, offset: 0x14D65, size: 0x8, addend: 0x0, symName: __ZN8nlohmann16json_abi_v3_11_36detail6concatINSt3__112basic_stringIcNS3_11char_traitsIcEENS3_9allocatorIcEEEEJRA25_KcPSA_EEET_DpOT0_, symObjAddr: 0x9E18, symBinAddr: 0x10000B77C, symSize: 0xA0 }
  - { offsetInCU: 0x5700, offset: 0x156DF, size: 0x8, addend: 0x0, symName: __ZN8nlohmann16json_abi_v3_11_36detail6concatINSt3__112basic_stringIcNS3_11char_traitsIcEENS3_9allocatorIcEEEEJRA10_KcS9_SC_S9_EEET_DpOT0_, symObjAddr: 0xB76C, symBinAddr: 0x10000D0D0, symSize: 0x124 }
  - { offsetInCU: 0x600E, offset: 0x15FED, size: 0x8, addend: 0x0, symName: __ZN8nlohmann16json_abi_v3_11_36detail6concatINSt3__112basic_stringIcNS3_11char_traitsIcEENS3_9allocatorIcEEEEJRA51_KcPSA_EEET_DpOT0_, symObjAddr: 0xD0B4, symBinAddr: 0x10000EA18, symSize: 0xA0 }
  - { offsetInCU: 0x19917, offset: 0x298F6, size: 0x8, addend: 0x0, symName: __ZNSt3__112__destroy_atB8ue170006IN8nlohmann16json_abi_v3_11_310basic_jsonINS_3mapENS_6vectorENS_12basic_stringIcNS_11char_traitsIcEENS_9allocatorIcEEEEbxydS9_NS2_14adl_serializerENS5_IhNS9_IhEEEEvEELi0EEEvPT_, symObjAddr: 0x1958, symBinAddr: 0x1000032BC, symSize: 0xBC }
  - { offsetInCU: 0x1B35A, offset: 0x2B339, size: 0x8, addend: 0x0, symName: __ZNSt3__125__throw_bad_function_callB8ue170006Ev, symObjAddr: 0x856C, symBinAddr: 0x100009ED0, symSize: 0x34 }
  - { offsetInCU: 0x1B733, offset: 0x2B712, size: 0x8, addend: 0x0, symName: __ZNSt3__113__tree_removeB8ue170006IPNS_16__tree_node_baseIPvEEEEvT_S5_, symObjAddr: 0x9EB8, symBinAddr: 0x10000B81C, symSize: 0x3C4 }
  - { offsetInCU: 0x1CBF1, offset: 0x2CBD0, size: 0x8, addend: 0x0, symName: __ZNSt3__127__tree_balance_after_insertB8ue170006IPNS_16__tree_node_baseIPvEEEEvT_S5_, symObjAddr: 0x9558, symBinAddr: 0x10000AEBC, symSize: 0x1B4 }
  - { offsetInCU: 0x1E472, offset: 0x2E451, size: 0x8, addend: 0x0, symName: __ZSt28__throw_bad_array_new_lengthB8ue170006v, symObjAddr: 0x9CC, symBinAddr: 0x10000233C, symSize: 0x28 }
  - { offsetInCU: 0x21AD4, offset: 0x31AB3, size: 0x8, addend: 0x0, symName: __ZN16BinanceRequesterC2Ev, symObjAddr: 0x0, symBinAddr: 0x1000019F8, symSize: 0x4 }
  - { offsetInCU: 0x21B15, offset: 0x31AF4, size: 0x8, addend: 0x0, symName: __ZN16BinanceRequesterC1Ev, symObjAddr: 0x4, symBinAddr: 0x1000019FC, symSize: 0x4 }
  - { offsetInCU: 0x21B42, offset: 0x31B21, size: 0x8, addend: 0x0, symName: __ZN16BinanceRequesterC1Ev, symObjAddr: 0x4, symBinAddr: 0x1000019FC, symSize: 0x4 }
  - { offsetInCU: 0x221E2, offset: 0x321C1, size: 0x8, addend: 0x0, symName: __ZN16BinanceRequester6getBBOERKNSt3__112basic_stringIcNS0_11char_traitsIcEENS0_9allocatorIcEEEES8_, symObjAddr: 0x8, symBinAddr: 0x100001A00, symSize: 0x3E4 }
  - { offsetInCU: 0x2396E, offset: 0x3394D, size: 0x8, addend: 0x0, symName: __ZN8nlohmann16json_abi_v3_11_310basic_jsonINSt3__13mapENS2_6vectorENS2_12basic_stringIcNS2_11char_traitsIcEENS2_9allocatorIcEEEEbxydS8_NS0_14adl_serializerENS4_IhNS8_IhEEEEvE5parseIRSA_EESE_OT_NS2_8functionIFbiNS0_6detail13parse_event_tERSE_EEEbb, symObjAddr: 0x500, symBinAddr: 0x100001EF8, symSize: 0x294 }
  - { offsetInCU: 0x24380, offset: 0x3435F, size: 0x8, addend: 0x0, symName: __ZN8nlohmann16json_abi_v3_11_310basic_jsonINSt3__13mapENS2_6vectorENS2_12basic_stringIcNS2_11char_traitsIcEENS2_9allocatorIcEEEEbxydS8_NS0_14adl_serializerENS4_IhNS8_IhEEEEvEixIKcEERSE_PT_, symObjAddr: 0x794, symBinAddr: 0x10000218C, symSize: 0xE4 }
  - { offsetInCU: 0x249AF, offset: 0x3498E, size: 0x8, addend: 0x0, symName: __ZN8nlohmann16json_abi_v3_11_310basic_jsonINSt3__13mapENS2_6vectorENS2_12basic_stringIcNS2_11char_traitsIcEENS2_9allocatorIcEEEEbxydS8_NS0_14adl_serializerENS4_IhNS8_IhEEEEvED1Ev, symObjAddr: 0x878, symBinAddr: 0x100002270, symSize: 0xCC }
  - { offsetInCU: 0x24A4A, offset: 0x34A29, size: 0x8, addend: 0x0, symName: __ZNSt3__16vectorINS_12basic_stringIcNS_11char_traitsIcEENS_9allocatorIcEEEENS4_IS6_EEED1B8ue170006Ev, symObjAddr: 0x48C, symBinAddr: 0x100001E84, symSize: 0x74 }
  - { offsetInCU: 0x24D84, offset: 0x34D63, size: 0x8, addend: 0x0, symName: __ZNSt3__112basic_stringIcNS_11char_traitsIcEENS_9allocatorIcEEEC1B8ue170006ILi0EEEPKc, symObjAddr: 0x3EC, symBinAddr: 0x100001DE4, symSize: 0xA0 }
  - { offsetInCU: 0x250F4, offset: 0x350D3, size: 0x8, addend: 0x0, symName: __ZNSt3__16vectorINS_12basic_stringIcNS_11char_traitsIcEENS_9allocatorIcEEEENS4_IS6_EEED1B8ue170006Ev, symObjAddr: 0x48C, symBinAddr: 0x100001E84, symSize: 0x74 }
  - { offsetInCU: 0x2555C, offset: 0x3553B, size: 0x8, addend: 0x0, symName: __ZN8nlohmann16json_abi_v3_11_36detail6parserINS0_10basic_jsonINSt3__13mapENS4_6vectorENS4_12basic_stringIcNS4_11char_traitsIcEENS4_9allocatorIcEEEEbxydSA_NS0_14adl_serializerENS6_IhNSA_IhEEEEvEENS1_22iterator_input_adapterINS4_11__wrap_iterIPKcEEEEEC2EOSM_NS4_8functionIFbiNS1_13parse_event_tERSG_EEEbb, symObjAddr: 0x27C0, symBinAddr: 0x100004124, symSize: 0x15C }
  - { offsetInCU: 0x2579E, offset: 0x3577D, size: 0x8, addend: 0x0, symName: __ZN8nlohmann16json_abi_v3_11_36detail6parserINS0_10basic_jsonINSt3__13mapENS4_6vectorENS4_12basic_stringIcNS4_11char_traitsIcEENS4_9allocatorIcEEEEbxydSA_NS0_14adl_serializerENS6_IhNSA_IhEEEEvEENS1_22iterator_input_adapterINS4_11__wrap_iterIPKcEEEEE5parseEbRSG_, symObjAddr: 0x1F44, symBinAddr: 0x1000038A8, symSize: 0x70C }
  - { offsetInCU: 0x2798C, offset: 0x3796B, size: 0x8, addend: 0x0, symName: __ZN8nlohmann16json_abi_v3_11_36detail6parserINS0_10basic_jsonINSt3__13mapENS4_6vectorENS4_12basic_stringIcNS4_11char_traitsIcEENS4_9allocatorIcEEEEbxydSA_NS0_14adl_serializerENS6_IhNSA_IhEEEEvEENS1_22iterator_input_adapterINS4_11__wrap_iterIPKcEEEEED1Ev, symObjAddr: 0x2650, symBinAddr: 0x100003FB4, symSize: 0x78 }
  - { offsetInCU: 0x27CA6, offset: 0x37C85, size: 0x8, addend: 0x0, symName: __ZN8nlohmann16json_abi_v3_11_310basic_jsonINSt3__13mapENS2_6vectorENS2_12basic_stringIcNS2_11char_traitsIcEENS2_9allocatorIcEEEEbxydS8_NS0_14adl_serializerENS4_IhNS8_IhEEEEvEixESA_, symObjAddr: 0xCF94, symBinAddr: 0x10000E8F8, symSize: 0x120 }
  - { offsetInCU: 0x28117, offset: 0x380F6, size: 0x8, addend: 0x0, symName: __ZN8nlohmann16json_abi_v3_11_310basic_jsonINSt3__13mapENS2_6vectorENS2_12basic_stringIcNS2_11char_traitsIcEENS2_9allocatorIcEEEEbxydS8_NS0_14adl_serializerENS4_IhNS8_IhEEEEvE10json_value7destroyENS0_6detail7value_tE, symObjAddr: 0x1178, symBinAddr: 0x100002ADC, symSize: 0x62C }
  - { offsetInCU: 0x2964F, offset: 0x3962E, size: 0x8, addend: 0x0, symName: __ZNK8nlohmann16json_abi_v3_11_310basic_jsonINSt3__13mapENS2_6vectorENS2_12basic_stringIcNS2_11char_traitsIcEENS2_9allocatorIcEEEEbxydS8_NS0_14adl_serializerENS4_IhNS8_IhEEEEvE9type_nameEv, symObjAddr: 0xD54, symBinAddr: 0x1000026B8, symSize: 0x28 }
  - { offsetInCU: 0x296A5, offset: 0x39684, size: 0x8, addend: 0x0, symName: __ZN8nlohmann16json_abi_v3_11_36detail10type_error6createIPKNS0_10basic_jsonINSt3__13mapENS5_6vectorENS5_12basic_stringIcNS5_11char_traitsIcEENS5_9allocatorIcEEEEbxydSB_NS0_14adl_serializerENS7_IhNSB_IhEEEEvEELi0EEES2_iRKSD_T_, symObjAddr: 0xAE0, symBinAddr: 0x100002444, symSize: 0x1D4 }
  - { offsetInCU: 0x2A5C7, offset: 0x3A5A6, size: 0x8, addend: 0x0, symName: __ZN8nlohmann16json_abi_v3_11_36detail10type_errorD1Ev, symObjAddr: 0xD7C, symBinAddr: 0x1000026E0, symSize: 0x34 }
  - { offsetInCU: 0x2A6DC, offset: 0x3A6BB, size: 0x8, addend: 0x0, symName: __ZN8nlohmann16json_abi_v3_11_36detail10type_errorD0Ev, symObjAddr: 0xFF0, symBinAddr: 0x100002954, symSize: 0x38 }
  - { offsetInCU: 0x2A761, offset: 0x3A740, size: 0x8, addend: 0x0, symName: __ZNK8nlohmann16json_abi_v3_11_36detail9exception4whatEv, symObjAddr: 0x1028, symBinAddr: 0x10000298C, symSize: 0x8 }
  - { offsetInCU: 0x2A788, offset: 0x3A767, size: 0x8, addend: 0x0, symName: __ZN8nlohmann16json_abi_v3_11_36detail9exceptionD1Ev, symObjAddr: 0x1030, symBinAddr: 0x100002994, symSize: 0x34 }
  - { offsetInCU: 0x2A7E6, offset: 0x3A7C5, size: 0x8, addend: 0x0, symName: __ZN8nlohmann16json_abi_v3_11_36detail9exceptionD0Ev, symObjAddr: 0x1064, symBinAddr: 0x1000029C8, symSize: 0x38 }
  - { offsetInCU: 0x2A84E, offset: 0x3A82D, size: 0x8, addend: 0x0, symName: __ZNK8nlohmann16json_abi_v3_11_310basic_jsonINSt3__13mapENS2_6vectorENS2_12basic_stringIcNS2_11char_traitsIcEENS2_9allocatorIcEEEEbxydS8_NS0_14adl_serializerENS4_IhNS8_IhEEEEvE16assert_invariantEb, symObjAddr: 0x109C, symBinAddr: 0x100002A00, symSize: 0xB0 }
  - { offsetInCU: 0x2A879, offset: 0x3A858, size: 0x8, addend: 0x0, symName: __ZN8nlohmann16json_abi_v3_11_310basic_jsonINSt3__13mapENS2_6vectorENS2_12basic_stringIcNS2_11char_traitsIcEENS2_9allocatorIcEEEEbxydS8_NS0_14adl_serializerENS4_IhNS8_IhEEEEvE4dataD1Ev, symObjAddr: 0x114C, symBinAddr: 0x100002AB0, symSize: 0x2C }
  - { offsetInCU: 0x2AF8B, offset: 0x3AF6A, size: 0x8, addend: 0x0, symName: __ZNSt3__16vectorIN8nlohmann16json_abi_v3_11_310basic_jsonINS_3mapES0_NS_12basic_stringIcNS_11char_traitsIcEENS_9allocatorIcEEEEbxydS8_NS2_14adl_serializerENS0_IhNS8_IhEEEEvEENS8_ISE_EEE7reserveEm, symObjAddr: 0x17A4, symBinAddr: 0x100003108, symSize: 0xE0 }
  - { offsetInCU: 0x2B40A, offset: 0x3B3E9, size: 0x8, addend: 0x0, symName: __ZNKSt3__16vectorIN8nlohmann16json_abi_v3_11_310basic_jsonINS_3mapES0_NS_12basic_stringIcNS_11char_traitsIcEENS_9allocatorIcEEEEbxydS8_NS2_14adl_serializerENS0_IhNS8_IhEEEEvEENS8_ISE_EEE20__throw_length_errorB8ue170006Ev, symObjAddr: 0x1884, symBinAddr: 0x1000031E8, symSize: 0x14 }
  - { offsetInCU: 0x2B41C, offset: 0x3B3FB, size: 0x8, addend: 0x0, symName: __ZN8nlohmann16json_abi_v3_11_310basic_jsonINSt3__13mapENS2_6vectorENS2_12basic_stringIcNS2_11char_traitsIcEENS2_9allocatorIcEEEEbxydS8_NS0_14adl_serializerENS4_IhNS8_IhEEEEvEC2EOSE_, symObjAddr: 0x1C58, symBinAddr: 0x1000035BC, symSize: 0x160 }
  - { offsetInCU: 0x2B497, offset: 0x3B476, size: 0x8, addend: 0x0, symName: __ZNSt3__16vectorIN8nlohmann16json_abi_v3_11_310basic_jsonINS_3mapES0_NS_12basic_stringIcNS_11char_traitsIcEENS_9allocatorIcEEEEbxydS8_NS2_14adl_serializerENS0_IhNS8_IhEEEEvEENS8_ISE_EEE21__push_back_slow_pathISE_EEvOT_, symObjAddr: 0x1B38, symBinAddr: 0x10000349C, symSize: 0x120 }
  - { offsetInCU: 0x2B9CD, offset: 0x3B9AC, size: 0x8, addend: 0x0, symName: __ZN8nlohmann16json_abi_v3_11_310basic_jsonINSt3__13mapENS2_6vectorENS2_12basic_stringIcNS2_11char_traitsIcEENS2_9allocatorIcEEEEbxydS8_NS0_14adl_serializerENS4_IhNS8_IhEEEEvEC2EOSE_, symObjAddr: 0x1C58, symBinAddr: 0x1000035BC, symSize: 0x160 }
  - { offsetInCU: 0x2B9E1, offset: 0x3B9C0, size: 0x8, addend: 0x0, symName: __ZNSt3__16__treeINS_12__value_typeINS_12basic_stringIcNS_11char_traitsIcEENS_9allocatorIcEEEEN8nlohmann16json_abi_v3_11_310basic_jsonINS_3mapENS_6vectorES7_bxydS5_NS9_14adl_serializerENSC_IhNS5_IhEEEEvEEEENS_19__map_value_compareIS7_SH_NS_4lessIvEELb1EEENS5_ISH_EEE7destroyEPNS_11__tree_nodeISH_PvEE, symObjAddr: 0x1DB8, symBinAddr: 0x10000371C, symSize: 0x68 }
  - { offsetInCU: 0x2BC89, offset: 0x3BC68, size: 0x8, addend: 0x0, symName: __ZNSt3__16vectorIN8nlohmann16json_abi_v3_11_310basic_jsonINS_3mapES0_NS_12basic_stringIcNS_11char_traitsIcEENS_9allocatorIcEEEEbxydS8_NS2_14adl_serializerENS0_IhNS8_IhEEEEvEENS8_ISE_EEED2B8ue170006Ev, symObjAddr: 0x1E20, symBinAddr: 0x100003784, symSize: 0x124 }
  - { offsetInCU: 0x2C03B, offset: 0x3C01A, size: 0x8, addend: 0x0, symName: __ZNKSt3__16vectorIN8nlohmann16json_abi_v3_11_310basic_jsonINS_3mapES0_NS_12basic_stringIcNS_11char_traitsIcEENS_9allocatorIcEEEEbxydS8_NS2_14adl_serializerENS0_IhNS8_IhEEEEvEENS8_ISE_EEE20__throw_length_errorB8ue170006Ev, symObjAddr: 0x1884, symBinAddr: 0x1000031E8, symSize: 0x14 }
  - { offsetInCU: 0x2C065, offset: 0x3C044, size: 0x8, addend: 0x0, symName: __ZNSt3__116allocator_traitsINS_9allocatorIN8nlohmann16json_abi_v3_11_310basic_jsonINS_3mapENS_6vectorENS_12basic_stringIcNS_11char_traitsIcEENS1_IcEEEEbxydS1_NS3_14adl_serializerENS6_IhNS1_IhEEEEvEEEEE7destroyB8ue170006ISF_vvEEvRSG_PT_, symObjAddr: 0x1898, symBinAddr: 0x1000031FC, symSize: 0xC0 }
  - { offsetInCU: 0x2C070, offset: 0x3C04F, size: 0x8, addend: 0x0, symName: __ZNSt3__116allocator_traitsINS_9allocatorIN8nlohmann16json_abi_v3_11_310basic_jsonINS_3mapENS_6vectorENS_12basic_stringIcNS_11char_traitsIcEENS1_IcEEEEbxydS1_NS3_14adl_serializerENS6_IhNS1_IhEEEEvEEEEE7destroyB8ue170006ISF_vvEEvRSG_PT_, symObjAddr: 0x1898, symBinAddr: 0x1000031FC, symSize: 0xC0 }
  - { offsetInCU: 0x2C14F, offset: 0x3C12E, size: 0x8, addend: 0x0, symName: __ZNSt3__114__split_bufferIN8nlohmann16json_abi_v3_11_310basic_jsonINS_3mapENS_6vectorENS_12basic_stringIcNS_11char_traitsIcEENS_9allocatorIcEEEEbxydS9_NS2_14adl_serializerENS5_IhNS9_IhEEEEvEERNS9_ISF_EEED2Ev, symObjAddr: 0x1A14, symBinAddr: 0x100003378, symSize: 0x124 }
  - { offsetInCU: 0x2C94E, offset: 0x3C92D, size: 0x8, addend: 0x0, symName: __ZN8nlohmann16json_abi_v3_11_36detail6parserINS0_10basic_jsonINSt3__13mapENS4_6vectorENS4_12basic_stringIcNS4_11char_traitsIcEENS4_9allocatorIcEEEEbxydSA_NS0_14adl_serializerENS6_IhNSA_IhEEEEvEENS1_22iterator_input_adapterINS4_11__wrap_iterIPKcEEEEE18sax_parse_internalINS1_19json_sax_dom_parserISG_EEEEbPT_, symObjAddr: 0x636C, symBinAddr: 0x100007CD0, symSize: 0xDBC }
  - { offsetInCU: 0x2E7C5, offset: 0x3E7A4, size: 0x8, addend: 0x0, symName: __ZN8nlohmann16json_abi_v3_11_36detail5lexerINS0_10basic_jsonINSt3__13mapENS4_6vectorENS4_12basic_stringIcNS4_11char_traitsIcEENS4_9allocatorIcEEEEbxydSA_NS0_14adl_serializerENS6_IhNSA_IhEEEEvEENS1_22iterator_input_adapterINS4_11__wrap_iterIPKcEEEEE4scanEv, symObjAddr: 0x2968, symBinAddr: 0x1000042CC, symSize: 0x298 }
  - { offsetInCU: 0x2EB10, offset: 0x3EAEF, size: 0x8, addend: 0x0, symName: __ZN8nlohmann16json_abi_v3_11_36detail5lexerINS0_10basic_jsonINSt3__13mapENS4_6vectorENS4_12basic_stringIcNS4_11char_traitsIcEENS4_9allocatorIcEEEEbxydSA_NS0_14adl_serializerENS6_IhNSA_IhEEEEvEENS1_22iterator_input_adapterINS4_11__wrap_iterIPKcEEEEE15skip_whitespaceEv, symObjAddr: 0x2C00, symBinAddr: 0x100004564, symSize: 0x25C }
  - { offsetInCU: 0x2EB1B, offset: 0x3EAFA, size: 0x8, addend: 0x0, symName: __ZNK8nlohmann16json_abi_v3_11_36detail5lexerINS0_10basic_jsonINSt3__13mapENS4_6vectorENS4_12basic_stringIcNS4_11char_traitsIcEENS4_9allocatorIcEEEEbxydSA_NS0_14adl_serializerENS6_IhNSA_IhEEEEvEENS1_22iterator_input_adapterINS4_11__wrap_iterIPKcEEEEE16get_token_stringEv, symObjAddr: 0x5A9C, symBinAddr: 0x100007400, symSize: 0xF0 }
  - { offsetInCU: 0x2EDD7, offset: 0x3EDB6, size: 0x8, addend: 0x0, symName: __ZN8nlohmann16json_abi_v3_11_36detail6parserINS0_10basic_jsonINSt3__13mapENS4_6vectorENS4_12basic_stringIcNS4_11char_traitsIcEENS4_9allocatorIcEEEEbxydSA_NS0_14adl_serializerENS6_IhNSA_IhEEEEvEENS1_22iterator_input_adapterINS4_11__wrap_iterIPKcEEEEE17exception_messageENS1_10lexer_baseISG_E10token_typeERKSC_, symObjAddr: 0x5DDC, symBinAddr: 0x100007740, symSize: 0x370 }
  - { offsetInCU: 0x30012, offset: 0x3FFF1, size: 0x8, addend: 0x0, symName: __ZN8nlohmann16json_abi_v3_11_36detail11parse_error6createIDnLi0EEES2_iRKNS1_10position_tERKNSt3__112basic_stringIcNS7_11char_traitsIcEENS7_9allocatorIcEEEET_, symObjAddr: 0x5B8C, symBinAddr: 0x1000074F0, symSize: 0x250 }
  - { offsetInCU: 0x30FFF, offset: 0x40FDE, size: 0x8, addend: 0x0, symName: __ZN8nlohmann16json_abi_v3_11_310basic_jsonINSt3__13mapENS2_6vectorENS2_12basic_stringIcNS2_11char_traitsIcEENS2_9allocatorIcEEEEbxydS8_NS0_14adl_serializerENS4_IhNS8_IhEEEEvEaSESE_, symObjAddr: 0x6180, symBinAddr: 0x100007AE4, symSize: 0x16C }
  - { offsetInCU: 0x310D4, offset: 0x410B3, size: 0x8, addend: 0x0, symName: __ZN8nlohmann16json_abi_v3_11_36detail28json_sax_dom_callback_parserINS0_10basic_jsonINSt3__13mapENS4_6vectorENS4_12basic_stringIcNS4_11char_traitsIcEENS4_9allocatorIcEEEEbxydSA_NS0_14adl_serializerENS6_IhNSA_IhEEEEvEEEC2ERSG_NS4_8functionIFbiNS1_13parse_event_tESI_EEEb, symObjAddr: 0x717C, symBinAddr: 0x100008AE0, symSize: 0x1C4 }
  - { offsetInCU: 0x316F9, offset: 0x416D8, size: 0x8, addend: 0x0, symName: __ZN8nlohmann16json_abi_v3_11_36detail6parserINS0_10basic_jsonINSt3__13mapENS4_6vectorENS4_12basic_stringIcNS4_11char_traitsIcEENS4_9allocatorIcEEEEbxydSA_NS0_14adl_serializerENS6_IhNSA_IhEEEEvEENS1_22iterator_input_adapterINS4_11__wrap_iterIPKcEEEEE18sax_parse_internalINS1_28json_sax_dom_callback_parserISG_EEEEbPT_, symObjAddr: 0x4DBC, symBinAddr: 0x100006720, symSize: 0xC8C }
  - { offsetInCU: 0x3319C, offset: 0x4317B, size: 0x8, addend: 0x0, symName: __ZN8nlohmann16json_abi_v3_11_36detail28json_sax_dom_callback_parserINS0_10basic_jsonINSt3__13mapENS4_6vectorENS4_12basic_stringIcNS4_11char_traitsIcEENS4_9allocatorIcEEEEbxydSA_NS0_14adl_serializerENS6_IhNSA_IhEEEEvEEED1Ev, symObjAddr: 0x62EC, symBinAddr: 0x100007C50, symSize: 0x80 }
  - { offsetInCU: 0x33C84, offset: 0x43C63, size: 0x8, addend: 0x0, symName: __ZN8nlohmann16json_abi_v3_11_310basic_jsonINSt3__13mapENS2_6vectorENS2_12basic_stringIcNS2_11char_traitsIcEENS2_9allocatorIcEEEEbxydS8_NS0_14adl_serializerENS4_IhNS8_IhEEEEvE10json_valueC2ENS0_6detail7value_tE, symObjAddr: 0x26C8, symBinAddr: 0x10000402C, symSize: 0xF8 }
  - { offsetInCU: 0x34259, offset: 0x44238, size: 0x8, addend: 0x0, symName: __ZN8nlohmann16json_abi_v3_11_36detail5lexerINS0_10basic_jsonINSt3__13mapENS4_6vectorENS4_12basic_stringIcNS4_11char_traitsIcEENS4_9allocatorIcEEEEbxydSA_NS0_14adl_serializerENS6_IhNSA_IhEEEEvEENS1_22iterator_input_adapterINS4_11__wrap_iterIPKcEEEEED1Ev, symObjAddr: 0x291C, symBinAddr: 0x100004280, symSize: 0x4C }
  - { offsetInCU: 0x345A8, offset: 0x44587, size: 0x8, addend: 0x0, symName: __ZN8nlohmann16json_abi_v3_11_36detail5lexerINS0_10basic_jsonINSt3__13mapENS4_6vectorENS4_12basic_stringIcNS4_11char_traitsIcEENS4_9allocatorIcEEEEbxydSA_NS0_14adl_serializerENS6_IhNSA_IhEEEEvEENS1_22iterator_input_adapterINS4_11__wrap_iterIPKcEEEEE3getEv, symObjAddr: 0x49AC, symBinAddr: 0x100006310, symSize: 0x240 }
  - { offsetInCU: 0x34A76, offset: 0x44A55, size: 0x8, addend: 0x0, symName: __ZNKSt3__16vectorIcNS_9allocatorIcEEE20__throw_length_errorB8ue170006Ev, symObjAddr: 0x4BEC, symBinAddr: 0x100006550, symSize: 0x14 }
  - { offsetInCU: 0x34A88, offset: 0x44A67, size: 0x8, addend: 0x0, symName: __ZN8nlohmann16json_abi_v3_11_36detail5lexerINS0_10basic_jsonINSt3__13mapENS4_6vectorENS4_12basic_stringIcNS4_11char_traitsIcEENS4_9allocatorIcEEEEbxydSA_NS0_14adl_serializerENS6_IhNSA_IhEEEEvEENS1_22iterator_input_adapterINS4_11__wrap_iterIPKcEEEEE15skip_whitespaceEv, symObjAddr: 0x2C00, symBinAddr: 0x100004564, symSize: 0x25C }
  - { offsetInCU: 0x34FA7, offset: 0x44F86, size: 0x8, addend: 0x0, symName: __ZN8nlohmann16json_abi_v3_11_36detail5lexerINS0_10basic_jsonINSt3__13mapENS4_6vectorENS4_12basic_stringIcNS4_11char_traitsIcEENS4_9allocatorIcEEEEbxydSA_NS0_14adl_serializerENS6_IhNSA_IhEEEEvEENS1_22iterator_input_adapterINS4_11__wrap_iterIPKcEEEEE12scan_commentEv, symObjAddr: 0x2E5C, symBinAddr: 0x1000047C0, symSize: 0x12C }
  - { offsetInCU: 0x34FB9, offset: 0x44F98, size: 0x8, addend: 0x0, symName: __ZN8nlohmann16json_abi_v3_11_36detail5lexerINS0_10basic_jsonINSt3__13mapENS4_6vectorENS4_12basic_stringIcNS4_11char_traitsIcEENS4_9allocatorIcEEEEbxydSA_NS0_14adl_serializerENS6_IhNSA_IhEEEEvEENS1_22iterator_input_adapterINS4_11__wrap_iterIPKcEEEEE12scan_commentEv, symObjAddr: 0x2E5C, symBinAddr: 0x1000047C0, symSize: 0x12C }
  - { offsetInCU: 0x350DB, offset: 0x450BA, size: 0x8, addend: 0x0, symName: __ZN8nlohmann16json_abi_v3_11_36detail5lexerINS0_10basic_jsonINSt3__13mapENS4_6vectorENS4_12basic_stringIcNS4_11char_traitsIcEENS4_9allocatorIcEEEEbxydSA_NS0_14adl_serializerENS6_IhNSA_IhEEEEvEENS1_22iterator_input_adapterINS4_11__wrap_iterIPKcEEEEE11scan_stringEv, symObjAddr: 0x2F88, symBinAddr: 0x1000048EC, symSize: 0x1298 }
  - { offsetInCU: 0x350E6, offset: 0x450C5, size: 0x8, addend: 0x0, symName: __ZN8nlohmann16json_abi_v3_11_36detail5lexerINS0_10basic_jsonINSt3__13mapENS4_6vectorENS4_12basic_stringIcNS4_11char_traitsIcEENS4_9allocatorIcEEEEbxydSA_NS0_14adl_serializerENS6_IhNSA_IhEEEEvEENS1_22iterator_input_adapterINS4_11__wrap_iterIPKcEEEEE11scan_numberEv, symObjAddr: 0x4220, symBinAddr: 0x100005B84, symSize: 0x78C }
  - { offsetInCU: 0x36507, offset: 0x464E6, size: 0x8, addend: 0x0, symName: __ZN8nlohmann16json_abi_v3_11_36detail5lexerINS0_10basic_jsonINSt3__13mapENS4_6vectorENS4_12basic_stringIcNS4_11char_traitsIcEENS4_9allocatorIcEEEEbxydSA_NS0_14adl_serializerENS6_IhNSA_IhEEEEvEENS1_22iterator_input_adapterINS4_11__wrap_iterIPKcEEEEE11scan_stringEv, symObjAddr: 0x2F88, symBinAddr: 0x1000048EC, symSize: 0x1298 }
  - { offsetInCU: 0x38BEB, offset: 0x48BCA, size: 0x8, addend: 0x0, symName: __ZN8nlohmann16json_abi_v3_11_36detail5lexerINS0_10basic_jsonINSt3__13mapENS4_6vectorENS4_12basic_stringIcNS4_11char_traitsIcEENS4_9allocatorIcEEEEbxydSA_NS0_14adl_serializerENS6_IhNSA_IhEEEEvEENS1_22iterator_input_adapterINS4_11__wrap_iterIPKcEEEEE4scanEv.cold.1, symObjAddr: 0xD2BC, symBinAddr: 0x100017890, symSize: 0x24 }
  - { offsetInCU: 0x38FAE, offset: 0x48F8D, size: 0x8, addend: 0x0, symName: __ZNKSt3__16vectorIcNS_9allocatorIcEEE20__throw_length_errorB8ue170006Ev, symObjAddr: 0x4BEC, symBinAddr: 0x100006550, symSize: 0x14 }
  - { offsetInCU: 0x38FD8, offset: 0x48FB7, size: 0x8, addend: 0x0, symName: __ZN8nlohmann16json_abi_v3_11_36detail5lexerINS0_10basic_jsonINSt3__13mapENS4_6vectorENS4_12basic_stringIcNS4_11char_traitsIcEENS4_9allocatorIcEEEEbxydSA_NS0_14adl_serializerENS6_IhNSA_IhEEEEvEENS1_22iterator_input_adapterINS4_11__wrap_iterIPKcEEEEE13get_codepointEv, symObjAddr: 0x4C00, symBinAddr: 0x100006564, symSize: 0x1BC }
  - { offsetInCU: 0x38FE3, offset: 0x48FC2, size: 0x8, addend: 0x0, symName: __ZN8nlohmann16json_abi_v3_11_36detail5lexerINS0_10basic_jsonINSt3__13mapENS4_6vectorENS4_12basic_stringIcNS4_11char_traitsIcEENS4_9allocatorIcEEEEbxydSA_NS0_14adl_serializerENS6_IhNSA_IhEEEEvEENS1_22iterator_input_adapterINS4_11__wrap_iterIPKcEEEEE12scan_commentEv.cold.1, symObjAddr: 0xD2E0, symBinAddr: 0x1000178B4, symSize: 0x24 }
  - { offsetInCU: 0x3923B, offset: 0x4921A, size: 0x8, addend: 0x0, symName: __ZN8nlohmann16json_abi_v3_11_36detail5lexerINS0_10basic_jsonINSt3__13mapENS4_6vectorENS4_12basic_stringIcNS4_11char_traitsIcEENS4_9allocatorIcEEEEbxydSA_NS0_14adl_serializerENS6_IhNSA_IhEEEEvEENS1_22iterator_input_adapterINS4_11__wrap_iterIPKcEEEEE13get_codepointEv, symObjAddr: 0x4C00, symBinAddr: 0x100006564, symSize: 0x1BC }
  - { offsetInCU: 0x3937D, offset: 0x4935C, size: 0x8, addend: 0x0, symName: __ZN8nlohmann16json_abi_v3_11_36detail6parserINS0_10basic_jsonINSt3__13mapENS4_6vectorENS4_12basic_stringIcNS4_11char_traitsIcEENS4_9allocatorIcEEEEbxydSA_NS0_14adl_serializerENS6_IhNSA_IhEEEEvEENS1_22iterator_input_adapterINS4_11__wrap_iterIPKcEEEEE18sax_parse_internalINS1_28json_sax_dom_callback_parserISG_EEEEbPT_, symObjAddr: 0x4DBC, symBinAddr: 0x100006720, symSize: 0xC8C }
  - { offsetInCU: 0x39388, offset: 0x49367, size: 0x8, addend: 0x0, symName: __ZN8nlohmann16json_abi_v3_11_36detail5lexerINS0_10basic_jsonINSt3__13mapENS4_6vectorENS4_12basic_stringIcNS4_11char_traitsIcEENS4_9allocatorIcEEEEbxydSA_NS0_14adl_serializerENS6_IhNSA_IhEEEEvEENS1_22iterator_input_adapterINS4_11__wrap_iterIPKcEEEEE11scan_stringEv.cold.2, symObjAddr: 0xD32C, symBinAddr: 0x100017900, symSize: 0x28 }
  - { offsetInCU: 0x393A0, offset: 0x4937F, size: 0x8, addend: 0x0, symName: __ZN8nlohmann16json_abi_v3_11_36detail5lexerINS0_10basic_jsonINSt3__13mapENS4_6vectorENS4_12basic_stringIcNS4_11char_traitsIcEENS4_9allocatorIcEEEEbxydSA_NS0_14adl_serializerENS6_IhNSA_IhEEEEvEENS1_22iterator_input_adapterINS4_11__wrap_iterIPKcEEEEE11scan_stringEv.cold.1, symObjAddr: 0xD304, symBinAddr: 0x1000178D8, symSize: 0x28 }
  - { offsetInCU: 0x393FA, offset: 0x493D9, size: 0x8, addend: 0x0, symName: __ZN8nlohmann16json_abi_v3_11_36detail5lexerINS0_10basic_jsonINSt3__13mapENS4_6vectorENS4_12basic_stringIcNS4_11char_traitsIcEENS4_9allocatorIcEEEEbxydSA_NS0_14adl_serializerENS6_IhNSA_IhEEEEvEENS1_22iterator_input_adapterINS4_11__wrap_iterIPKcEEEEE11scan_numberEv.cold.2, symObjAddr: 0xD37C, symBinAddr: 0x100017950, symSize: 0x28 }
  - { offsetInCU: 0x39412, offset: 0x493F1, size: 0x8, addend: 0x0, symName: __ZN8nlohmann16json_abi_v3_11_36detail5lexerINS0_10basic_jsonINSt3__13mapENS4_6vectorENS4_12basic_stringIcNS4_11char_traitsIcEENS4_9allocatorIcEEEEbxydSA_NS0_14adl_serializerENS6_IhNSA_IhEEEEvEENS1_22iterator_input_adapterINS4_11__wrap_iterIPKcEEEEE11scan_numberEv.cold.3, symObjAddr: 0xD3A4, symBinAddr: 0x100017978, symSize: 0x28 }
  - { offsetInCU: 0x3942A, offset: 0x49409, size: 0x8, addend: 0x0, symName: __ZN8nlohmann16json_abi_v3_11_36detail5lexerINS0_10basic_jsonINSt3__13mapENS4_6vectorENS4_12basic_stringIcNS4_11char_traitsIcEENS4_9allocatorIcEEEEbxydSA_NS0_14adl_serializerENS6_IhNSA_IhEEEEvEENS1_22iterator_input_adapterINS4_11__wrap_iterIPKcEEEEE11scan_numberEv.cold.4, symObjAddr: 0xD3CC, symBinAddr: 0x1000179A0, symSize: 0x28 }
  - { offsetInCU: 0x39442, offset: 0x49421, size: 0x8, addend: 0x0, symName: __ZN8nlohmann16json_abi_v3_11_36detail5lexerINS0_10basic_jsonINSt3__13mapENS4_6vectorENS4_12basic_stringIcNS4_11char_traitsIcEENS4_9allocatorIcEEEEbxydSA_NS0_14adl_serializerENS6_IhNSA_IhEEEEvEENS1_22iterator_input_adapterINS4_11__wrap_iterIPKcEEEEE11scan_numberEv.cold.5, symObjAddr: 0xD3F4, symBinAddr: 0x1000179C8, symSize: 0x24 }
  - { offsetInCU: 0x39470, offset: 0x4944F, size: 0x8, addend: 0x0, symName: __ZN8nlohmann16json_abi_v3_11_36detail5lexerINS0_10basic_jsonINSt3__13mapENS4_6vectorENS4_12basic_stringIcNS4_11char_traitsIcEENS4_9allocatorIcEEEEbxydSA_NS0_14adl_serializerENS6_IhNSA_IhEEEEvEENS1_22iterator_input_adapterINS4_11__wrap_iterIPKcEEEEE11scan_numberEv.cold.1, symObjAddr: 0xD354, symBinAddr: 0x100017928, symSize: 0x28 }
  - { offsetInCU: 0x39488, offset: 0x49467, size: 0x8, addend: 0x0, symName: __ZN8nlohmann16json_abi_v3_11_36detail5lexerINS0_10basic_jsonINSt3__13mapENS4_6vectorENS4_12basic_stringIcNS4_11char_traitsIcEENS4_9allocatorIcEEEEbxydSA_NS0_14adl_serializerENS6_IhNSA_IhEEEEvEENS1_22iterator_input_adapterINS4_11__wrap_iterIPKcEEEEE13get_codepointEv.cold.1, symObjAddr: 0xD418, symBinAddr: 0x1000179EC, symSize: 0x28 }
  - { offsetInCU: 0x3970D, offset: 0x496EC, size: 0x8, addend: 0x0, symName: __ZN8nlohmann16json_abi_v3_11_36detail28json_sax_dom_callback_parserINS0_10basic_jsonINSt3__13mapENS4_6vectorENS4_12basic_stringIcNS4_11char_traitsIcEENS4_9allocatorIcEEEEbxydSA_NS0_14adl_serializerENS6_IhNSA_IhEEEEvEEE12handle_valueIRbEENS4_4pairIbPSG_EEOT_b, symObjAddr: 0xA914, symBinAddr: 0x10000C278, symSize: 0x240 }
  - { offsetInCU: 0x39D2D, offset: 0x49D0C, size: 0x8, addend: 0x0, symName: __ZN8nlohmann16json_abi_v3_11_36detail28json_sax_dom_callback_parserINS0_10basic_jsonINSt3__13mapENS4_6vectorENS4_12basic_stringIcNS4_11char_traitsIcEENS4_9allocatorIcEEEEbxydSA_NS0_14adl_serializerENS6_IhNSA_IhEEEEvEEE12handle_valueIRxEENS4_4pairIbPSG_EEOT_b, symObjAddr: 0xAD8C, symBinAddr: 0x10000C6F0, symSize: 0x23C }
  - { offsetInCU: 0x3A355, offset: 0x4A334, size: 0x8, addend: 0x0, symName: __ZN8nlohmann16json_abi_v3_11_36detail28json_sax_dom_callback_parserINS0_10basic_jsonINSt3__13mapENS4_6vectorENS4_12basic_stringIcNS4_11char_traitsIcEENS4_9allocatorIcEEEEbxydSA_NS0_14adl_serializerENS6_IhNSA_IhEEEEvEEE12handle_valueIRSC_EENS4_4pairIbPSG_EEOT_b, symObjAddr: 0xAFC8, symBinAddr: 0x10000C92C, symSize: 0x23C }
  - { offsetInCU: 0x3A8A5, offset: 0x4A884, size: 0x8, addend: 0x0, symName: __ZN8nlohmann16json_abi_v3_11_36detail28json_sax_dom_callback_parserINS0_10basic_jsonINSt3__13mapENS4_6vectorENS4_12basic_stringIcNS4_11char_traitsIcEENS4_9allocatorIcEEEEbxydSA_NS0_14adl_serializerENS6_IhNSA_IhEEEEvEEE12start_objectEm, symObjAddr: 0x7464, symBinAddr: 0x100008DC8, symSize: 0x2F0 }
  - { offsetInCU: 0x3B104, offset: 0x4B0E3, size: 0x8, addend: 0x0, symName: __ZN8nlohmann16json_abi_v3_11_36detail28json_sax_dom_callback_parserINS0_10basic_jsonINSt3__13mapENS4_6vectorENS4_12basic_stringIcNS4_11char_traitsIcEENS4_9allocatorIcEEEEbxydSA_NS0_14adl_serializerENS6_IhNSA_IhEEEEvEEE10end_objectEv, symObjAddr: 0x7754, symBinAddr: 0x1000090B8, symSize: 0x2BC }
  - { offsetInCU: 0x3B93D, offset: 0x4B91C, size: 0x8, addend: 0x0, symName: __ZN8nlohmann16json_abi_v3_11_36detail28json_sax_dom_callback_parserINS0_10basic_jsonINSt3__13mapENS4_6vectorENS4_12basic_stringIcNS4_11char_traitsIcEENS4_9allocatorIcEEEEbxydSA_NS0_14adl_serializerENS6_IhNSA_IhEEEEvEEE12handle_valueIDnEENS4_4pairIbPSG_EEOT_b, symObjAddr: 0xAB54, symBinAddr: 0x10000C4B8, symSize: 0x238 }
  - { offsetInCU: 0x3BF44, offset: 0x4BF23, size: 0x8, addend: 0x0, symName: __ZN8nlohmann16json_abi_v3_11_36detail28json_sax_dom_callback_parserINS0_10basic_jsonINSt3__13mapENS4_6vectorENS4_12basic_stringIcNS4_11char_traitsIcEENS4_9allocatorIcEEEEbxydSA_NS0_14adl_serializerENS6_IhNSA_IhEEEEvEEE12handle_valueIRdEENS4_4pairIbPSG_EEOT_b, symObjAddr: 0xA6D0, symBinAddr: 0x10000C034, symSize: 0x244 }
  - { offsetInCU: 0x3C584, offset: 0x4C563, size: 0x8, addend: 0x0, symName: __ZN8nlohmann16json_abi_v3_11_36detail28json_sax_dom_callback_parserINS0_10basic_jsonINSt3__13mapENS4_6vectorENS4_12basic_stringIcNS4_11char_traitsIcEENS4_9allocatorIcEEEEbxydSA_NS0_14adl_serializerENS6_IhNSA_IhEEEEvEEE12handle_valueIRyEENS4_4pairIbPSG_EEOT_b, symObjAddr: 0xB204, symBinAddr: 0x10000CB68, symSize: 0x240 }
  - { offsetInCU: 0x3CBAC, offset: 0x4CB8B, size: 0x8, addend: 0x0, symName: __ZN8nlohmann16json_abi_v3_11_36detail28json_sax_dom_callback_parserINS0_10basic_jsonINSt3__13mapENS4_6vectorENS4_12basic_stringIcNS4_11char_traitsIcEENS4_9allocatorIcEEEEbxydSA_NS0_14adl_serializerENS6_IhNSA_IhEEEEvEEE11start_arrayEm, symObjAddr: 0x7B9C, symBinAddr: 0x100009500, symSize: 0x2F4 }
  - { offsetInCU: 0x3D40B, offset: 0x4D3EA, size: 0x8, addend: 0x0, symName: __ZN8nlohmann16json_abi_v3_11_36detail28json_sax_dom_callback_parserINS0_10basic_jsonINSt3__13mapENS4_6vectorENS4_12basic_stringIcNS4_11char_traitsIcEENS4_9allocatorIcEEEEbxydSA_NS0_14adl_serializerENS6_IhNSA_IhEEEEvEEE9end_arrayEv, symObjAddr: 0x7E90, symBinAddr: 0x1000097F4, symSize: 0x13C }
  - { offsetInCU: 0x3D705, offset: 0x4D6E4, size: 0x8, addend: 0x0, symName: __ZN8nlohmann16json_abi_v3_11_36detail28json_sax_dom_callback_parserINS0_10basic_jsonINSt3__13mapENS4_6vectorENS4_12basic_stringIcNS4_11char_traitsIcEENS4_9allocatorIcEEEEbxydSA_NS0_14adl_serializerENS6_IhNSA_IhEEEEvEEE3keyERSC_, symObjAddr: 0x7A10, symBinAddr: 0x100009374, symSize: 0x18C }
  - { offsetInCU: 0x3DA10, offset: 0x4D9EF, size: 0x8, addend: 0x0, symName: __ZNSt3__16vectorIbNS_9allocatorIbEEE7reserveEm, symObjAddr: 0x7340, symBinAddr: 0x100008CA4, symSize: 0x110 }
  - { offsetInCU: 0x3DDE8, offset: 0x4DDC7, size: 0x8, addend: 0x0, symName: __ZNKSt3__16vectorIbNS_9allocatorIbEEE20__throw_length_errorB8ue170006Ev, symObjAddr: 0x7450, symBinAddr: 0x100008DB4, symSize: 0x14 }
  - { offsetInCU: 0x3DDFA, offset: 0x4DDD9, size: 0x8, addend: 0x0, symName: __ZN8nlohmann16json_abi_v3_11_36detail28json_sax_dom_callback_parserINS0_10basic_jsonINSt3__13mapENS4_6vectorENS4_12basic_stringIcNS4_11char_traitsIcEENS4_9allocatorIcEEEEbxydSA_NS0_14adl_serializerENS6_IhNSA_IhEEEEvEEE11parse_errorINS1_11parse_errorEEEbmRKSC_RKT_, symObjAddr: 0x5A48, symBinAddr: 0x1000073AC, symSize: 0x54 }
  - { offsetInCU: 0x3DE4B, offset: 0x4DE2A, size: 0x8, addend: 0x0, symName: __ZNKSt3__16vectorIbNS_9allocatorIbEEE20__throw_length_errorB8ue170006Ev, symObjAddr: 0x7450, symBinAddr: 0x100008DB4, symSize: 0x14 }
  - { offsetInCU: 0x3DE75, offset: 0x4DE54, size: 0x8, addend: 0x0, symName: __ZN8nlohmann16json_abi_v3_11_36detail28json_sax_dom_callback_parserINS0_10basic_jsonINSt3__13mapENS4_6vectorENS4_12basic_stringIcNS4_11char_traitsIcEENS4_9allocatorIcEEEEbxydSA_NS0_14adl_serializerENS6_IhNSA_IhEEEEvEEE12start_objectEm, symObjAddr: 0x7464, symBinAddr: 0x100008DC8, symSize: 0x2F0 }
  - { offsetInCU: 0x3DE80, offset: 0x4DE5F, size: 0x8, addend: 0x0, symName: __ZN8nlohmann16json_abi_v3_11_36detail11parse_errorC1ERKS2_, symObjAddr: 0xB444, symBinAddr: 0x10000CDA8, symSize: 0x60 }
  - { offsetInCU: 0x3DFD0, offset: 0x4DFAF, size: 0x8, addend: 0x0, symName: __ZN8nlohmann16json_abi_v3_11_36detail11parse_error15position_stringERKNS1_10position_tE, symObjAddr: 0xB684, symBinAddr: 0x10000CFE8, symSize: 0xE8 }
  - { offsetInCU: 0x3E50B, offset: 0x4E4EA, size: 0x8, addend: 0x0, symName: __ZN8nlohmann16json_abi_v3_11_36detail11parse_errorD1Ev, symObjAddr: 0x614C, symBinAddr: 0x100007AB0, symSize: 0x34 }
  - { offsetInCU: 0x3E729, offset: 0x4E708, size: 0x8, addend: 0x0, symName: __ZN8nlohmann16json_abi_v3_11_36detail19json_sax_dom_parserINS0_10basic_jsonINSt3__13mapENS4_6vectorENS4_12basic_stringIcNS4_11char_traitsIcEENS4_9allocatorIcEEEEbxydSA_NS0_14adl_serializerENS6_IhNSA_IhEEEEvEEE12handle_valueIRbEEPSG_OT_, symObjAddr: 0xC4C8, symBinAddr: 0x10000DE2C, symSize: 0x10C }
  - { offsetInCU: 0x3EC03, offset: 0x4EBE2, size: 0x8, addend: 0x0, symName: __ZNSt3__16vectorIN8nlohmann16json_abi_v3_11_310basic_jsonINS_3mapES0_NS_12basic_stringIcNS_11char_traitsIcEENS_9allocatorIcEEEEbxydS8_NS2_14adl_serializerENS0_IhNS8_IhEEEEvEENS8_ISE_EEE24__emplace_back_slow_pathIJRbEEEvDpOT_, symObjAddr: 0xC5D4, symBinAddr: 0x10000DF38, symSize: 0x11C }
  - { offsetInCU: 0x3EC17, offset: 0x4EBF6, size: 0x8, addend: 0x0, symName: __ZN8nlohmann16json_abi_v3_11_36detail19json_sax_dom_parserINS0_10basic_jsonINSt3__13mapENS4_6vectorENS4_12basic_stringIcNS4_11char_traitsIcEENS4_9allocatorIcEEEEbxydSA_NS0_14adl_serializerENS6_IhNSA_IhEEEEvEEE12handle_valueIRxEEPSG_OT_, symObjAddr: 0xC908, symBinAddr: 0x10000E26C, symSize: 0x10C }
  - { offsetInCU: 0x3F11B, offset: 0x4F0FA, size: 0x8, addend: 0x0, symName: __ZNSt3__16vectorIN8nlohmann16json_abi_v3_11_310basic_jsonINS_3mapES0_NS_12basic_stringIcNS_11char_traitsIcEENS_9allocatorIcEEEEbxydS8_NS2_14adl_serializerENS0_IhNS8_IhEEEEvEENS8_ISE_EEE24__emplace_back_slow_pathIJRxEEEvDpOT_, symObjAddr: 0xCA14, symBinAddr: 0x10000E378, symSize: 0x11C }
  - { offsetInCU: 0x3F12F, offset: 0x4F10E, size: 0x8, addend: 0x0, symName: __ZN8nlohmann16json_abi_v3_11_36detail19json_sax_dom_parserINS0_10basic_jsonINSt3__13mapENS4_6vectorENS4_12basic_stringIcNS4_11char_traitsIcEENS4_9allocatorIcEEEEbxydSA_NS0_14adl_serializerENS6_IhNSA_IhEEEEvEEE12handle_valueIRSC_EEPSG_OT_, symObjAddr: 0xCB30, symBinAddr: 0x10000E494, symSize: 0x110 }
  - { offsetInCU: 0x3F3F8, offset: 0x4F3D7, size: 0x8, addend: 0x0, symName: __ZN8nlohmann16json_abi_v3_11_36detail19json_sax_dom_parserINS0_10basic_jsonINSt3__13mapENS4_6vectorENS4_12basic_stringIcNS4_11char_traitsIcEENS4_9allocatorIcEEEEbxydSA_NS0_14adl_serializerENS6_IhNSA_IhEEEEvEEE12start_objectEm, symObjAddr: 0xB98C, symBinAddr: 0x10000D2F0, symSize: 0x22C }
  - { offsetInCU: 0x3FAE4, offset: 0x4FAC3, size: 0x8, addend: 0x0, symName: __ZN8nlohmann16json_abi_v3_11_36detail19json_sax_dom_parserINS0_10basic_jsonINSt3__13mapENS4_6vectorENS4_12basic_stringIcNS4_11char_traitsIcEENS4_9allocatorIcEEEEbxydSA_NS0_14adl_serializerENS6_IhNSA_IhEEEEvEEE12handle_valueIDnEEPSG_OT_, symObjAddr: 0xC6F0, symBinAddr: 0x10000E054, symSize: 0xD0 }
  - { offsetInCU: 0x3FDD2, offset: 0x4FDB1, size: 0x8, addend: 0x0, symName: __ZNSt3__16vectorIN8nlohmann16json_abi_v3_11_310basic_jsonINS_3mapES0_NS_12basic_stringIcNS_11char_traitsIcEENS_9allocatorIcEEEEbxydS8_NS2_14adl_serializerENS0_IhNS8_IhEEEEvEENS8_ISE_EEE12emplace_backIJDnEEERSE_DpOT_, symObjAddr: 0xC7C0, symBinAddr: 0x10000E124, symSize: 0x148 }
  - { offsetInCU: 0x3FDE6, offset: 0x4FDC5, size: 0x8, addend: 0x0, symName: __ZN8nlohmann16json_abi_v3_11_36detail19json_sax_dom_parserINS0_10basic_jsonINSt3__13mapENS4_6vectorENS4_12basic_stringIcNS4_11char_traitsIcEENS4_9allocatorIcEEEEbxydSA_NS0_14adl_serializerENS6_IhNSA_IhEEEEvEEE12handle_valueIRdEEPSG_OT_, symObjAddr: 0xC294, symBinAddr: 0x10000DBF8, symSize: 0x114 }
  - { offsetInCU: 0x40310, offset: 0x502EF, size: 0x8, addend: 0x0, symName: __ZNSt3__16vectorIN8nlohmann16json_abi_v3_11_310basic_jsonINS_3mapES0_NS_12basic_stringIcNS_11char_traitsIcEENS_9allocatorIcEEEEbxydS8_NS2_14adl_serializerENS0_IhNS8_IhEEEEvEENS8_ISE_EEE24__emplace_back_slow_pathIJRdEEEvDpOT_, symObjAddr: 0xC3A8, symBinAddr: 0x10000DD0C, symSize: 0x120 }
  - { offsetInCU: 0x40324, offset: 0x50303, size: 0x8, addend: 0x0, symName: __ZN8nlohmann16json_abi_v3_11_36detail19json_sax_dom_parserINS0_10basic_jsonINSt3__13mapENS4_6vectorENS4_12basic_stringIcNS4_11char_traitsIcEENS4_9allocatorIcEEEEbxydSA_NS0_14adl_serializerENS6_IhNSA_IhEEEEvEEE12handle_valueIRyEEPSG_OT_, symObjAddr: 0xCD6C, symBinAddr: 0x10000E6D0, symSize: 0x10C }
  - { offsetInCU: 0x40828, offset: 0x50807, size: 0x8, addend: 0x0, symName: __ZNSt3__16vectorIN8nlohmann16json_abi_v3_11_310basic_jsonINS_3mapES0_NS_12basic_stringIcNS_11char_traitsIcEENS_9allocatorIcEEEEbxydS8_NS2_14adl_serializerENS0_IhNS8_IhEEEEvEENS8_ISE_EEE24__emplace_back_slow_pathIJRyEEEvDpOT_, symObjAddr: 0xCE78, symBinAddr: 0x10000E7DC, symSize: 0x11C }
  - { offsetInCU: 0x40853, offset: 0x50832, size: 0x8, addend: 0x0, symName: __ZNSt3__16__treeINS_12__value_typeINS_12basic_stringIcNS_11char_traitsIcEENS_9allocatorIcEEEEN8nlohmann16json_abi_v3_11_310basic_jsonINS_3mapENS_6vectorES7_bxydS5_NS9_14adl_serializerENSC_IhNS5_IhEEEEvEEEENS_19__map_value_compareIS7_SH_NS_4lessIvEELb1EEENS5_ISH_EEE25__emplace_unique_key_argsIS7_JRKNS_21piecewise_construct_tENS_5tupleIJRKS7_EEENSS_IJEEEEEENS_4pairINS_15__tree_iteratorISH_PNS_11__tree_nodeISH_PvEElEEbEERKT_DpOT0_, symObjAddr: 0xA44C, symBinAddr: 0x10000BDB0, symSize: 0x1D8 }
  - { offsetInCU: 0x412F4, offset: 0x512D3, size: 0x8, addend: 0x0, symName: __ZN8nlohmann16json_abi_v3_11_36detail19json_sax_dom_parserINS0_10basic_jsonINSt3__13mapENS4_6vectorENS4_12basic_stringIcNS4_11char_traitsIcEENS4_9allocatorIcEEEEbxydSA_NS0_14adl_serializerENS6_IhNSA_IhEEEEvEEE11start_arrayEm, symObjAddr: 0xBBB8, symBinAddr: 0x10000D51C, symSize: 0x22C }
  - { offsetInCU: 0x419E0, offset: 0x519BF, size: 0x8, addend: 0x0, symName: __ZN8nlohmann16json_abi_v3_11_36detail19json_sax_dom_parserINS0_10basic_jsonINSt3__13mapENS4_6vectorENS4_12basic_stringIcNS4_11char_traitsIcEENS4_9allocatorIcEEEEbxydSA_NS0_14adl_serializerENS6_IhNSA_IhEEEEvEEE11parse_errorINS1_11parse_errorEEEbmRKSC_RKT_, symObjAddr: 0x7128, symBinAddr: 0x100008A8C, symSize: 0x54 }
  - { offsetInCU: 0x41FFC, offset: 0x51FDB, size: 0x8, addend: 0x0, symName: __ZN8nlohmann16json_abi_v3_11_36detail28json_sax_dom_callback_parserINS0_10basic_jsonINSt3__13mapENS4_6vectorENS4_12basic_stringIcNS4_11char_traitsIcEENS4_9allocatorIcEEEEbxydSA_NS0_14adl_serializerENS6_IhNSA_IhEEEEvEEE12handle_valueINS1_7value_tEEENS4_4pairIbPSG_EEOT_b, symObjAddr: 0x8000, symBinAddr: 0x100009964, symSize: 0x2E8 }
  - { offsetInCU: 0x42AF3, offset: 0x52AD2, size: 0x8, addend: 0x0, symName: __ZN8nlohmann16json_abi_v3_11_36detail12out_of_range6createIPNS0_10basic_jsonINSt3__13mapENS5_6vectorENS5_12basic_stringIcNS5_11char_traitsIcEENS5_9allocatorIcEEEEbxydSB_NS0_14adl_serializerENS7_IhNSB_IhEEEEvEELi0EEES2_iRKSD_T_, symObjAddr: 0x82E8, symBinAddr: 0x100009C4C, symSize: 0x1D8 }
  - { offsetInCU: 0x4389A, offset: 0x53879, size: 0x8, addend: 0x0, symName: __ZNKSt3__16vectorIPN8nlohmann16json_abi_v3_11_310basic_jsonINS_3mapES0_NS_12basic_stringIcNS_11char_traitsIcEENS_9allocatorIcEEEEbxydS8_NS2_14adl_serializerENS0_IhNS8_IhEEEEvEENS8_ISF_EEE20__throw_length_errorB8ue170006Ev, symObjAddr: 0x86CC, symBinAddr: 0x10000A030, symSize: 0x14 }
  - { offsetInCU: 0x438C4, offset: 0x538A3, size: 0x8, addend: 0x0, symName: __ZN8nlohmann16json_abi_v3_11_36detail12out_of_rangeD0Ev, symObjAddr: 0x86E0, symBinAddr: 0x10000A044, symSize: 0x38 }
  - { offsetInCU: 0x43BAF, offset: 0x53B8E, size: 0x8, addend: 0x0, symName: __ZN8nlohmann16json_abi_v3_11_310basic_jsonINSt3__13mapENS2_6vectorENS2_12basic_stringIcNS2_11char_traitsIcEENS2_9allocatorIcEEEEbxydS8_NS0_14adl_serializerENS4_IhNS8_IhEEEEvEC2ERKSE_, symObjAddr: 0x8BDC, symBinAddr: 0x10000A540, symSize: 0x34C }
  - { offsetInCU: 0x44985, offset: 0x54964, size: 0x8, addend: 0x0, symName: __ZNK8nlohmann16json_abi_v3_11_36detail9iter_implINS0_10basic_jsonINSt3__13mapENS4_6vectorENS4_12basic_stringIcNS4_11char_traitsIcEENS4_9allocatorIcEEEEbxydSA_NS0_14adl_serializerENS6_IhNSA_IhEEEEvEEEeqISH_LDn0EEEbRKT_, symObjAddr: 0x98FC, symBinAddr: 0x10000B260, symSize: 0x110 }
  - { offsetInCU: 0x44BE6, offset: 0x54BC5, size: 0x8, addend: 0x0, symName: __ZNK8nlohmann16json_abi_v3_11_36detail9iter_implINS0_10basic_jsonINSt3__13mapENS4_6vectorENS4_12basic_stringIcNS4_11char_traitsIcEENS4_9allocatorIcEEEEbxydSA_NS0_14adl_serializerENS6_IhNSA_IhEEEEvEEEptEv, symObjAddr: 0x8718, symBinAddr: 0x10000A07C, symSize: 0x11C }
  - { offsetInCU: 0x44EDB, offset: 0x54EBA, size: 0x8, addend: 0x0, symName: __ZN8nlohmann16json_abi_v3_11_310basic_jsonINSt3__13mapENS2_6vectorENS2_12basic_stringIcNS2_11char_traitsIcEENS2_9allocatorIcEEEEbxydS8_NS0_14adl_serializerENS4_IhNS8_IhEEEEvE5eraseINS0_6detail9iter_implISE_EELi0EEET_SJ_, symObjAddr: 0x8834, symBinAddr: 0x10000A198, symSize: 0x3A8 }
  - { offsetInCU: 0x45AC3, offset: 0x55AA2, size: 0x8, addend: 0x0, symName: __ZN8nlohmann16json_abi_v3_11_36detail28json_sax_dom_callback_parserINS0_10basic_jsonINSt3__13mapENS4_6vectorENS4_12basic_stringIcNS4_11char_traitsIcEENS4_9allocatorIcEEEEbxydSA_NS0_14adl_serializerENS6_IhNSA_IhEEEEvEEE10end_objectEv.cold.3, symObjAddr: 0xD490, symBinAddr: 0x100017A64, symSize: 0x28 }
  - { offsetInCU: 0x45AF1, offset: 0x55AD0, size: 0x8, addend: 0x0, symName: __ZN8nlohmann16json_abi_v3_11_36detail28json_sax_dom_callback_parserINS0_10basic_jsonINSt3__13mapENS4_6vectorENS4_12basic_stringIcNS4_11char_traitsIcEENS4_9allocatorIcEEEEbxydSA_NS0_14adl_serializerENS6_IhNSA_IhEEEEvEEE10end_objectEv.cold.1, symObjAddr: 0xD440, symBinAddr: 0x100017A14, symSize: 0x28 }
  - { offsetInCU: 0x45B09, offset: 0x55AE8, size: 0x8, addend: 0x0, symName: __ZN8nlohmann16json_abi_v3_11_36detail28json_sax_dom_callback_parserINS0_10basic_jsonINSt3__13mapENS4_6vectorENS4_12basic_stringIcNS4_11char_traitsIcEENS4_9allocatorIcEEEEbxydSA_NS0_14adl_serializerENS6_IhNSA_IhEEEEvEEE10end_objectEv.cold.2, symObjAddr: 0xD468, symBinAddr: 0x100017A3C, symSize: 0x28 }
  - { offsetInCU: 0x45B5F, offset: 0x55B3E, size: 0x8, addend: 0x0, symName: __ZN8nlohmann16json_abi_v3_11_310basic_jsonINSt3__13mapENS2_6vectorENS2_12basic_stringIcNS2_11char_traitsIcEENS2_9allocatorIcEEEEbxydS8_NS0_14adl_serializerENS4_IhNS8_IhEEEEvEC2IRSA_SA_Li0EEEOT_, symObjAddr: 0xA27C, symBinAddr: 0x10000BBE0, symSize: 0xDC }
  - { offsetInCU: 0x45CA8, offset: 0x55C87, size: 0x8, addend: 0x0, symName: __ZN8nlohmann16json_abi_v3_11_36detail28json_sax_dom_callback_parserINS0_10basic_jsonINSt3__13mapENS4_6vectorENS4_12basic_stringIcNS4_11char_traitsIcEENS4_9allocatorIcEEEEbxydSA_NS0_14adl_serializerENS6_IhNSA_IhEEEEvEEE9end_arrayEv.cold.1, symObjAddr: 0xD4B8, symBinAddr: 0x100017A8C, symSize: 0x28 }
  - { offsetInCU: 0x45CC0, offset: 0x55C9F, size: 0x8, addend: 0x0, symName: __ZN8nlohmann16json_abi_v3_11_36detail28json_sax_dom_callback_parserINS0_10basic_jsonINSt3__13mapENS4_6vectorENS4_12basic_stringIcNS4_11char_traitsIcEENS4_9allocatorIcEEEEbxydSA_NS0_14adl_serializerENS6_IhNSA_IhEEEEvEEE9end_arrayEv.cold.2, symObjAddr: 0xD4E0, symBinAddr: 0x100017AB4, symSize: 0x28 }
  - { offsetInCU: 0x45CFA, offset: 0x55CD9, size: 0x8, addend: 0x0, symName: __ZN8nlohmann16json_abi_v3_11_36detail12out_of_rangeD1Ev, symObjAddr: 0x7FCC, symBinAddr: 0x100009930, symSize: 0x34 }
  - { offsetInCU: 0x45E24, offset: 0x55E03, size: 0x8, addend: 0x0, symName: __ZNSt3__16vectorIN8nlohmann16json_abi_v3_11_310basic_jsonINS_3mapES0_NS_12basic_stringIcNS_11char_traitsIcEENS_9allocatorIcEEEEbxydS8_NS2_14adl_serializerENS0_IhNS8_IhEEEEvEENS8_ISE_EEE24__emplace_back_slow_pathIJSE_EEEvDpOT_, symObjAddr: 0x85B8, symBinAddr: 0x100009F1C, symSize: 0x114 }
  - { offsetInCU: 0x4630B, offset: 0x562EA, size: 0x8, addend: 0x0, symName: __ZNKSt3__16vectorIPN8nlohmann16json_abi_v3_11_310basic_jsonINS_3mapES0_NS_12basic_stringIcNS_11char_traitsIcEENS_9allocatorIcEEEEbxydS8_NS2_14adl_serializerENS0_IhNS8_IhEEEEvEENS8_ISF_EEE20__throw_length_errorB8ue170006Ev, symObjAddr: 0x86CC, symBinAddr: 0x10000A030, symSize: 0x14 }
  - { offsetInCU: 0x46321, offset: 0x56300, size: 0x8, addend: 0x0, symName: __ZN8nlohmann16json_abi_v3_11_36detail28json_sax_dom_callback_parserINS0_10basic_jsonINSt3__13mapENS4_6vectorENS4_12basic_stringIcNS4_11char_traitsIcEENS4_9allocatorIcEEEEbxydSA_NS0_14adl_serializerENS6_IhNSA_IhEEEEvEEE12handle_valueINS1_7value_tEEENS4_4pairIbPSG_EEOT_b.cold.1, symObjAddr: 0xD508, symBinAddr: 0x100017ADC, symSize: 0x24 }
  - { offsetInCU: 0x46412, offset: 0x563F1, size: 0x8, addend: 0x0, symName: __ZNSt3__117bad_function_callD1Ev, symObjAddr: 0x85A0, symBinAddr: 0x100009F04, symSize: 0x4 }
  - { offsetInCU: 0x46434, offset: 0x56413, size: 0x8, addend: 0x0, symName: __ZNSt3__117bad_function_callD1Ev, symObjAddr: 0x85A0, symBinAddr: 0x100009F04, symSize: 0x4 }
  - { offsetInCU: 0x46468, offset: 0x56447, size: 0x8, addend: 0x0, symName: __ZNSt3__117bad_function_callD0Ev, symObjAddr: 0x85A4, symBinAddr: 0x100009F08, symSize: 0x14 }
  - { offsetInCU: 0x46599, offset: 0x56578, size: 0x8, addend: 0x0, symName: __ZN8nlohmann16json_abi_v3_11_36detail12out_of_rangeD0Ev, symObjAddr: 0x86E0, symBinAddr: 0x10000A044, symSize: 0x38 }
  - { offsetInCU: 0x46666, offset: 0x56645, size: 0x8, addend: 0x0, symName: __ZNK8nlohmann16json_abi_v3_11_36detail9iter_implINS0_10basic_jsonINSt3__13mapENS4_6vectorENS4_12basic_stringIcNS4_11char_traitsIcEENS4_9allocatorIcEEEEbxydSA_NS0_14adl_serializerENS6_IhNSA_IhEEEEvEEEptEv.cold.3, symObjAddr: 0xD57C, symBinAddr: 0x100017B50, symSize: 0x28 }
  - { offsetInCU: 0x4667E, offset: 0x5665D, size: 0x8, addend: 0x0, symName: __ZNK8nlohmann16json_abi_v3_11_36detail9iter_implINS0_10basic_jsonINSt3__13mapENS4_6vectorENS4_12basic_stringIcNS4_11char_traitsIcEENS4_9allocatorIcEEEEbxydSA_NS0_14adl_serializerENS6_IhNSA_IhEEEEvEEEptEv.cold.1, symObjAddr: 0xD52C, symBinAddr: 0x100017B00, symSize: 0x28 }
  - { offsetInCU: 0x46696, offset: 0x56675, size: 0x8, addend: 0x0, symName: __ZNK8nlohmann16json_abi_v3_11_36detail9iter_implINS0_10basic_jsonINSt3__13mapENS4_6vectorENS4_12basic_stringIcNS4_11char_traitsIcEENS4_9allocatorIcEEEEbxydSA_NS0_14adl_serializerENS6_IhNSA_IhEEEEvEEEptEv.cold.2, symObjAddr: 0xD554, symBinAddr: 0x100017B28, symSize: 0x28 }
  - { offsetInCU: 0x466B3, offset: 0x56692, size: 0x8, addend: 0x0, symName: __ZN8nlohmann16json_abi_v3_11_36detail16invalid_iterator6createIPNS0_10basic_jsonINSt3__13mapENS5_6vectorENS5_12basic_stringIcNS5_11char_traitsIcEENS5_9allocatorIcEEEEbxydSB_NS0_14adl_serializerENS7_IhNSB_IhEEEEvEELi0EEES2_iRKSD_T_, symObjAddr: 0x9A0C, symBinAddr: 0x10000B370, symSize: 0x1CC }
  - { offsetInCU: 0x4760E, offset: 0x575ED, size: 0x8, addend: 0x0, symName: __ZN8nlohmann16json_abi_v3_11_36detail10type_error6createIPNS0_10basic_jsonINSt3__13mapENS5_6vectorENS5_12basic_stringIcNS5_11char_traitsIcEENS5_9allocatorIcEEEEbxydSB_NS0_14adl_serializerENS7_IhNSB_IhEEEEvEELi0EEES2_iRKSD_T_, symObjAddr: 0x9C44, symBinAddr: 0x10000B5A8, symSize: 0x1D4 }
  - { offsetInCU: 0x48D03, offset: 0x58CE2, size: 0x8, addend: 0x0, symName: __ZNSt3__13mapINS_12basic_stringIcNS_11char_traitsIcEENS_9allocatorIcEEEEN8nlohmann16json_abi_v3_11_310basic_jsonIS0_NS_6vectorES6_bxydS4_NS8_14adl_serializerENSA_IhNS4_IhEEEEvEENS_4lessIvEENS4_INS_4pairIKS6_SE_EEEEEC2B8ue170006ERKSL_, symObjAddr: 0x8F28, symBinAddr: 0x10000A88C, symSize: 0x12C }
  - { offsetInCU: 0x49108, offset: 0x590E7, size: 0x8, addend: 0x0, symName: __ZNSt3__16vectorIN8nlohmann16json_abi_v3_11_310basic_jsonINS_3mapES0_NS_12basic_stringIcNS_11char_traitsIcEENS_9allocatorIcEEEEbxydS8_NS2_14adl_serializerENS0_IhNS8_IhEEEEvEENS8_ISE_EEE16__init_with_sizeB8ue170006IPSE_SI_EEvT_T0_m, symObjAddr: 0x970C, symBinAddr: 0x10000B070, symSize: 0xF4 }
  - { offsetInCU: 0x494B0, offset: 0x5948F, size: 0x8, addend: 0x0, symName: __ZNKSt3__16vectorIhNS_9allocatorIhEEE20__throw_length_errorB8ue170006Ev, symObjAddr: 0x98E8, symBinAddr: 0x10000B24C, symSize: 0x14 }
  - { offsetInCU: 0x494DA, offset: 0x594B9, size: 0x8, addend: 0x0, symName: __ZNK8nlohmann16json_abi_v3_11_36detail9iter_implINS0_10basic_jsonINSt3__13mapENS4_6vectorENS4_12basic_stringIcNS4_11char_traitsIcEENS4_9allocatorIcEEEEbxydSA_NS0_14adl_serializerENS6_IhNSA_IhEEEEvEEEeqISH_LDn0EEEbRKT_, symObjAddr: 0x98FC, symBinAddr: 0x10000B260, symSize: 0x110 }
  - { offsetInCU: 0x49845, offset: 0x59824, size: 0x8, addend: 0x0, symName: __ZNSt3__16__treeINS_12__value_typeINS_12basic_stringIcNS_11char_traitsIcEENS_9allocatorIcEEEEN8nlohmann16json_abi_v3_11_310basic_jsonINS_3mapENS_6vectorES7_bxydS5_NS9_14adl_serializerENSC_IhNS5_IhEEEEvEEEENS_19__map_value_compareIS7_SH_NS_4lessIvEELb1EEENS5_ISH_EEE12__find_equalIS7_EERPNS_16__tree_node_baseIPvEENS_21__tree_const_iteratorISH_PNS_11__tree_nodeISH_SQ_EElEERPNS_15__tree_end_nodeISS_EEST_RKT_, symObjAddr: 0x9054, symBinAddr: 0x10000A9B8, symSize: 0x3A8 }
  - { offsetInCU: 0x4A4B9, offset: 0x5A498, size: 0x8, addend: 0x0, symName: __ZNSt3__16__treeINS_12__value_typeINS_12basic_stringIcNS_11char_traitsIcEENS_9allocatorIcEEEEN8nlohmann16json_abi_v3_11_310basic_jsonINS_3mapENS_6vectorES7_bxydS5_NS9_14adl_serializerENSC_IhNS5_IhEEEEvEEEENS_19__map_value_compareIS7_SH_NS_4lessIvEELb1EEENS5_ISH_EEE16__construct_nodeIJRKNS_4pairIKS7_SG_EEEEENS_10unique_ptrINS_11__tree_nodeISH_PvEENS_22__tree_node_destructorINS5_ISX_EEEEEEDpOT_, symObjAddr: 0x93FC, symBinAddr: 0x10000AD60, symSize: 0x108 }
  - { offsetInCU: 0x4AF3A, offset: 0x5AF19, size: 0x8, addend: 0x0, symName: __ZNSt3__110unique_ptrINS_11__tree_nodeINS_12__value_typeINS_12basic_stringIcNS_11char_traitsIcEENS_9allocatorIcEEEEN8nlohmann16json_abi_v3_11_310basic_jsonINS_3mapENS_6vectorES8_bxydS6_NSA_14adl_serializerENSD_IhNS6_IhEEEEvEEEEPvEENS_22__tree_node_destructorINS6_ISK_EEEEED1B8ue170006Ev, symObjAddr: 0x9504, symBinAddr: 0x10000AE68, symSize: 0x54 }
  - { offsetInCU: 0x4B463, offset: 0x5B442, size: 0x8, addend: 0x0, symName: __ZNSt3__128__exception_guard_exceptionsINS_29_AllocatorDestroyRangeReverseINS_9allocatorIN8nlohmann16json_abi_v3_11_310basic_jsonINS_3mapENS_6vectorENS_12basic_stringIcNS_11char_traitsIcEENS2_IcEEEEbxydS2_NS4_14adl_serializerENS7_IhNS2_IhEEEEvEEEEPSG_EEED1B8ue170006Ev, symObjAddr: 0x9884, symBinAddr: 0x10000B1E8, symSize: 0x64 }
  - { offsetInCU: 0x4B5AB, offset: 0x5B58A, size: 0x8, addend: 0x0, symName: __ZNSt3__128__exception_guard_exceptionsINS_6vectorIN8nlohmann16json_abi_v3_11_310basic_jsonINS_3mapES1_NS_12basic_stringIcNS_11char_traitsIcEENS_9allocatorIcEEEEbxydS9_NS3_14adl_serializerENS1_IhNS9_IhEEEEvEENS9_ISF_EEE16__destroy_vectorEED1B8ue170006Ev, symObjAddr: 0x9800, symBinAddr: 0x10000B164, symSize: 0x84 }
  - { offsetInCU: 0x4B7B3, offset: 0x5B792, size: 0x8, addend: 0x0, symName: __ZNK8nlohmann16json_abi_v3_11_36detail9iter_implINS0_10basic_jsonINSt3__13mapENS4_6vectorENS4_12basic_stringIcNS4_11char_traitsIcEENS4_9allocatorIcEEEEbxydSA_NS0_14adl_serializerENS6_IhNSA_IhEEEEvEEEeqISH_LDn0EEEbRKT_.cold.1, symObjAddr: 0xD5A4, symBinAddr: 0x100017B78, symSize: 0x28 }
  - { offsetInCU: 0x4B851, offset: 0x5B830, size: 0x8, addend: 0x0, symName: __ZN8nlohmann16json_abi_v3_11_36detail16invalid_iteratorD1Ev, symObjAddr: 0x9BD8, symBinAddr: 0x10000B53C, symSize: 0x34 }
  - { offsetInCU: 0x4B8CE, offset: 0x5B8AD, size: 0x8, addend: 0x0, symName: __ZN8nlohmann16json_abi_v3_11_36detail16invalid_iteratorD0Ev, symObjAddr: 0x9C0C, symBinAddr: 0x10000B570, symSize: 0x38 }
  - { offsetInCU: 0x4B9E8, offset: 0x5B9C7, size: 0x8, addend: 0x0, symName: __ZN8nlohmann16json_abi_v3_11_36detail20external_constructorILNS1_7value_tE3EE9constructINS0_10basic_jsonINSt3__13mapENS7_6vectorENS7_12basic_stringIcNS7_11char_traitsIcEENS7_9allocatorIcEEEEbxydSD_NS0_14adl_serializerENS9_IhNSD_IhEEEEvEEEEvRT_RKNSK_8string_tE, symObjAddr: 0xA358, symBinAddr: 0x10000BCBC, symSize: 0xF4 }
  - { offsetInCU: 0x4C3D0, offset: 0x5C3AF, size: 0x8, addend: 0x0, symName: __ZN8nlohmann16json_abi_v3_11_36detail28json_sax_dom_callback_parserINS0_10basic_jsonINSt3__13mapENS4_6vectorENS4_12basic_stringIcNS4_11char_traitsIcEENS4_9allocatorIcEEEEbxydSA_NS0_14adl_serializerENS6_IhNSA_IhEEEEvEEE12handle_valueIRdEENS4_4pairIbPSG_EEOT_b.cold.1, symObjAddr: 0xD5CC, symBinAddr: 0x100017BA0, symSize: 0x24 }
  - { offsetInCU: 0x4C4FF, offset: 0x5C4DE, size: 0x8, addend: 0x0, symName: __ZN8nlohmann16json_abi_v3_11_36detail28json_sax_dom_callback_parserINS0_10basic_jsonINSt3__13mapENS4_6vectorENS4_12basic_stringIcNS4_11char_traitsIcEENS4_9allocatorIcEEEEbxydSA_NS0_14adl_serializerENS6_IhNSA_IhEEEEvEEE12handle_valueIRbEENS4_4pairIbPSG_EEOT_b.cold.1, symObjAddr: 0xD5F0, symBinAddr: 0x100017BC4, symSize: 0x24 }
  - { offsetInCU: 0x4C517, offset: 0x5C4F6, size: 0x8, addend: 0x0, symName: __ZN8nlohmann16json_abi_v3_11_36detail28json_sax_dom_callback_parserINS0_10basic_jsonINSt3__13mapENS4_6vectorENS4_12basic_stringIcNS4_11char_traitsIcEENS4_9allocatorIcEEEEbxydSA_NS0_14adl_serializerENS6_IhNSA_IhEEEEvEEE12handle_valueIDnEENS4_4pairIbPSG_EEOT_b.cold.1, symObjAddr: 0xD614, symBinAddr: 0x100017BE8, symSize: 0x24 }
  - { offsetInCU: 0x4C646, offset: 0x5C625, size: 0x8, addend: 0x0, symName: __ZN8nlohmann16json_abi_v3_11_36detail28json_sax_dom_callback_parserINS0_10basic_jsonINSt3__13mapENS4_6vectorENS4_12basic_stringIcNS4_11char_traitsIcEENS4_9allocatorIcEEEEbxydSA_NS0_14adl_serializerENS6_IhNSA_IhEEEEvEEE12handle_valueIRxEENS4_4pairIbPSG_EEOT_b.cold.1, symObjAddr: 0xD638, symBinAddr: 0x100017C0C, symSize: 0x24 }
  - { offsetInCU: 0x4C65E, offset: 0x5C63D, size: 0x8, addend: 0x0, symName: __ZN8nlohmann16json_abi_v3_11_36detail28json_sax_dom_callback_parserINS0_10basic_jsonINSt3__13mapENS4_6vectorENS4_12basic_stringIcNS4_11char_traitsIcEENS4_9allocatorIcEEEEbxydSA_NS0_14adl_serializerENS6_IhNSA_IhEEEEvEEE12handle_valueIRSC_EENS4_4pairIbPSG_EEOT_b.cold.1, symObjAddr: 0xD65C, symBinAddr: 0x100017C30, symSize: 0x24 }
  - { offsetInCU: 0x4C78D, offset: 0x5C76C, size: 0x8, addend: 0x0, symName: __ZN8nlohmann16json_abi_v3_11_36detail28json_sax_dom_callback_parserINS0_10basic_jsonINSt3__13mapENS4_6vectorENS4_12basic_stringIcNS4_11char_traitsIcEENS4_9allocatorIcEEEEbxydSA_NS0_14adl_serializerENS6_IhNSA_IhEEEEvEEE12handle_valueIRyEENS4_4pairIbPSG_EEOT_b.cold.1, symObjAddr: 0xD680, symBinAddr: 0x100017C54, symSize: 0x24 }
  - { offsetInCU: 0x4C7A5, offset: 0x5C784, size: 0x8, addend: 0x0, symName: __ZN8nlohmann16json_abi_v3_11_36detail11parse_errorD0Ev, symObjAddr: 0xB4A4, symBinAddr: 0x10000CE08, symSize: 0x38 }
  - { offsetInCU: 0x4C940, offset: 0x5C91F, size: 0x8, addend: 0x0, symName: __ZN8nlohmann16json_abi_v3_11_36detail19json_sax_dom_parserINS0_10basic_jsonINSt3__13mapENS4_6vectorENS4_12basic_stringIcNS4_11char_traitsIcEENS4_9allocatorIcEEEEbxydSA_NS0_14adl_serializerENS6_IhNSA_IhEEEEvEEE12handle_valueINS1_7value_tEEEPSG_OT_, symObjAddr: 0xBDE4, symBinAddr: 0x10000D748, symSize: 0x200 }
  - { offsetInCU: 0x4D642, offset: 0x5D621, size: 0x8, addend: 0x0, symName: __ZNSt3__16vectorIN8nlohmann16json_abi_v3_11_310basic_jsonINS_3mapES0_NS_12basic_stringIcNS_11char_traitsIcEENS_9allocatorIcEEEEbxydS8_NS2_14adl_serializerENS0_IhNS8_IhEEEEvEENS8_ISE_EEE22__construct_one_at_endB8ue170006IJNS2_6detail7value_tEEEEvDpOT_, symObjAddr: 0xBFE4, symBinAddr: 0x10000D948, symSize: 0xE0 }
  - { offsetInCU: 0x4D685, offset: 0x5D664, size: 0x8, addend: 0x0, symName: __ZNSt3__16vectorIN8nlohmann16json_abi_v3_11_310basic_jsonINS_3mapES0_NS_12basic_stringIcNS_11char_traitsIcEENS_9allocatorIcEEEEbxydS8_NS2_14adl_serializerENS0_IhNS8_IhEEEEvEENS8_ISE_EEE22__construct_one_at_endB8ue170006IJNS2_6detail7value_tEEEEvDpOT_, symObjAddr: 0xBFE4, symBinAddr: 0x10000D948, symSize: 0xE0 }
  - { offsetInCU: 0x4D86F, offset: 0x5D84E, size: 0x8, addend: 0x0, symName: __ZNSt3__16vectorIN8nlohmann16json_abi_v3_11_310basic_jsonINS_3mapES0_NS_12basic_stringIcNS_11char_traitsIcEENS_9allocatorIcEEEEbxydS8_NS2_14adl_serializerENS0_IhNS8_IhEEEEvEENS8_ISE_EEE24__emplace_back_slow_pathIJNS2_6detail7value_tEEEEvDpOT_, symObjAddr: 0xC0C4, symBinAddr: 0x10000DA28, symSize: 0x1D0 }
  - { offsetInCU: 0x4DE0D, offset: 0x5DDEC, size: 0x8, addend: 0x0, symName: __ZN8nlohmann16json_abi_v3_11_36detail19json_sax_dom_parserINS0_10basic_jsonINSt3__13mapENS4_6vectorENS4_12basic_stringIcNS4_11char_traitsIcEENS4_9allocatorIcEEEEbxydSA_NS0_14adl_serializerENS6_IhNSA_IhEEEEvEEE12handle_valueINS1_7value_tEEEPSG_OT_.cold.1, symObjAddr: 0xD6A4, symBinAddr: 0x100017C78, symSize: 0x24 }
  - { offsetInCU: 0x4DE25, offset: 0x5DE04, size: 0x8, addend: 0x0, symName: __ZN8nlohmann16json_abi_v3_11_36detail19json_sax_dom_parserINS0_10basic_jsonINSt3__13mapENS4_6vectorENS4_12basic_stringIcNS4_11char_traitsIcEENS4_9allocatorIcEEEEbxydSA_NS0_14adl_serializerENS6_IhNSA_IhEEEEvEEE12handle_valueINS1_7value_tEEEPSG_OT_.cold.2, symObjAddr: 0xD6C8, symBinAddr: 0x100017C9C, symSize: 0x24 }
  - { offsetInCU: 0x4DF87, offset: 0x5DF66, size: 0x8, addend: 0x0, symName: __ZNSt3__16vectorIN8nlohmann16json_abi_v3_11_310basic_jsonINS_3mapES0_NS_12basic_stringIcNS_11char_traitsIcEENS_9allocatorIcEEEEbxydS8_NS2_14adl_serializerENS0_IhNS8_IhEEEEvEENS8_ISE_EEE24__emplace_back_slow_pathIJRdEEEvDpOT_, symObjAddr: 0xC3A8, symBinAddr: 0x10000DD0C, symSize: 0x120 }
  - { offsetInCU: 0x4E533, offset: 0x5E512, size: 0x8, addend: 0x0, symName: __ZN8nlohmann16json_abi_v3_11_36detail19json_sax_dom_parserINS0_10basic_jsonINSt3__13mapENS4_6vectorENS4_12basic_stringIcNS4_11char_traitsIcEENS4_9allocatorIcEEEEbxydSA_NS0_14adl_serializerENS6_IhNSA_IhEEEEvEEE12handle_valueIRbEEPSG_OT_, symObjAddr: 0xC4C8, symBinAddr: 0x10000DE2C, symSize: 0x10C }
  - { offsetInCU: 0x4E549, offset: 0x5E528, size: 0x8, addend: 0x0, symName: __ZN8nlohmann16json_abi_v3_11_36detail19json_sax_dom_parserINS0_10basic_jsonINSt3__13mapENS4_6vectorENS4_12basic_stringIcNS4_11char_traitsIcEENS4_9allocatorIcEEEEbxydSA_NS0_14adl_serializerENS6_IhNSA_IhEEEEvEEE12handle_valueIRdEEPSG_OT_.cold.1, symObjAddr: 0xD6EC, symBinAddr: 0x100017CC0, symSize: 0x24 }
  - { offsetInCU: 0x4E561, offset: 0x5E540, size: 0x8, addend: 0x0, symName: __ZN8nlohmann16json_abi_v3_11_36detail19json_sax_dom_parserINS0_10basic_jsonINSt3__13mapENS4_6vectorENS4_12basic_stringIcNS4_11char_traitsIcEENS4_9allocatorIcEEEEbxydSA_NS0_14adl_serializerENS6_IhNSA_IhEEEEvEEE12handle_valueIRdEEPSG_OT_.cold.2, symObjAddr: 0xD710, symBinAddr: 0x100017CE4, symSize: 0x24 }
  - { offsetInCU: 0x4E620, offset: 0x5E5FF, size: 0x8, addend: 0x0, symName: __ZNSt3__16vectorIN8nlohmann16json_abi_v3_11_310basic_jsonINS_3mapES0_NS_12basic_stringIcNS_11char_traitsIcEENS_9allocatorIcEEEEbxydS8_NS2_14adl_serializerENS0_IhNS8_IhEEEEvEENS8_ISE_EEE24__emplace_back_slow_pathIJRbEEEvDpOT_, symObjAddr: 0xC5D4, symBinAddr: 0x10000DF38, symSize: 0x11C }
  - { offsetInCU: 0x4EBAC, offset: 0x5EB8B, size: 0x8, addend: 0x0, symName: __ZN8nlohmann16json_abi_v3_11_36detail19json_sax_dom_parserINS0_10basic_jsonINSt3__13mapENS4_6vectorENS4_12basic_stringIcNS4_11char_traitsIcEENS4_9allocatorIcEEEEbxydSA_NS0_14adl_serializerENS6_IhNSA_IhEEEEvEEE12handle_valueIDnEEPSG_OT_, symObjAddr: 0xC6F0, symBinAddr: 0x10000E054, symSize: 0xD0 }
  - { offsetInCU: 0x4EBC2, offset: 0x5EBA1, size: 0x8, addend: 0x0, symName: __ZN8nlohmann16json_abi_v3_11_36detail19json_sax_dom_parserINS0_10basic_jsonINSt3__13mapENS4_6vectorENS4_12basic_stringIcNS4_11char_traitsIcEENS4_9allocatorIcEEEEbxydSA_NS0_14adl_serializerENS6_IhNSA_IhEEEEvEEE12handle_valueIRbEEPSG_OT_.cold.1, symObjAddr: 0xD734, symBinAddr: 0x100017D08, symSize: 0x24 }
  - { offsetInCU: 0x4EBDA, offset: 0x5EBB9, size: 0x8, addend: 0x0, symName: __ZN8nlohmann16json_abi_v3_11_36detail19json_sax_dom_parserINS0_10basic_jsonINSt3__13mapENS4_6vectorENS4_12basic_stringIcNS4_11char_traitsIcEENS4_9allocatorIcEEEEbxydSA_NS0_14adl_serializerENS6_IhNSA_IhEEEEvEEE12handle_valueIRbEEPSG_OT_.cold.2, symObjAddr: 0xD758, symBinAddr: 0x100017D2C, symSize: 0x24 }
  - { offsetInCU: 0x4EBF2, offset: 0x5EBD1, size: 0x8, addend: 0x0, symName: __ZNSt3__16vectorIN8nlohmann16json_abi_v3_11_310basic_jsonINS_3mapES0_NS_12basic_stringIcNS_11char_traitsIcEENS_9allocatorIcEEEEbxydS8_NS2_14adl_serializerENS0_IhNS8_IhEEEEvEENS8_ISE_EEE12emplace_backIJDnEEERSE_DpOT_, symObjAddr: 0xC7C0, symBinAddr: 0x10000E124, symSize: 0x148 }
  - { offsetInCU: 0x4F2E5, offset: 0x5F2C4, size: 0x8, addend: 0x0, symName: __ZN8nlohmann16json_abi_v3_11_36detail19json_sax_dom_parserINS0_10basic_jsonINSt3__13mapENS4_6vectorENS4_12basic_stringIcNS4_11char_traitsIcEENS4_9allocatorIcEEEEbxydSA_NS0_14adl_serializerENS6_IhNSA_IhEEEEvEEE12handle_valueIRxEEPSG_OT_, symObjAddr: 0xC908, symBinAddr: 0x10000E26C, symSize: 0x10C }
  - { offsetInCU: 0x4F2FB, offset: 0x5F2DA, size: 0x8, addend: 0x0, symName: __ZN8nlohmann16json_abi_v3_11_36detail19json_sax_dom_parserINS0_10basic_jsonINSt3__13mapENS4_6vectorENS4_12basic_stringIcNS4_11char_traitsIcEENS4_9allocatorIcEEEEbxydSA_NS0_14adl_serializerENS6_IhNSA_IhEEEEvEEE12handle_valueIDnEEPSG_OT_.cold.1, symObjAddr: 0xD77C, symBinAddr: 0x100017D50, symSize: 0x24 }
  - { offsetInCU: 0x4F313, offset: 0x5F2F2, size: 0x8, addend: 0x0, symName: __ZN8nlohmann16json_abi_v3_11_36detail19json_sax_dom_parserINS0_10basic_jsonINSt3__13mapENS4_6vectorENS4_12basic_stringIcNS4_11char_traitsIcEENS4_9allocatorIcEEEEbxydSA_NS0_14adl_serializerENS6_IhNSA_IhEEEEvEEE12handle_valueIDnEEPSG_OT_.cold.2, symObjAddr: 0xD7A0, symBinAddr: 0x100017D74, symSize: 0x24 }
  - { offsetInCU: 0x4F491, offset: 0x5F470, size: 0x8, addend: 0x0, symName: __ZNSt3__16vectorIN8nlohmann16json_abi_v3_11_310basic_jsonINS_3mapES0_NS_12basic_stringIcNS_11char_traitsIcEENS_9allocatorIcEEEEbxydS8_NS2_14adl_serializerENS0_IhNS8_IhEEEEvEENS8_ISE_EEE24__emplace_back_slow_pathIJRxEEEvDpOT_, symObjAddr: 0xCA14, symBinAddr: 0x10000E378, symSize: 0x11C }
  - { offsetInCU: 0x4FA2B, offset: 0x5FA0A, size: 0x8, addend: 0x0, symName: __ZN8nlohmann16json_abi_v3_11_36detail19json_sax_dom_parserINS0_10basic_jsonINSt3__13mapENS4_6vectorENS4_12basic_stringIcNS4_11char_traitsIcEENS4_9allocatorIcEEEEbxydSA_NS0_14adl_serializerENS6_IhNSA_IhEEEEvEEE12handle_valueIRSC_EEPSG_OT_, symObjAddr: 0xCB30, symBinAddr: 0x10000E494, symSize: 0x110 }
  - { offsetInCU: 0x4FA41, offset: 0x5FA20, size: 0x8, addend: 0x0, symName: __ZN8nlohmann16json_abi_v3_11_36detail19json_sax_dom_parserINS0_10basic_jsonINSt3__13mapENS4_6vectorENS4_12basic_stringIcNS4_11char_traitsIcEENS4_9allocatorIcEEEEbxydSA_NS0_14adl_serializerENS6_IhNSA_IhEEEEvEEE12handle_valueIRxEEPSG_OT_.cold.1, symObjAddr: 0xD7C4, symBinAddr: 0x100017D98, symSize: 0x24 }
  - { offsetInCU: 0x4FA59, offset: 0x5FA38, size: 0x8, addend: 0x0, symName: __ZN8nlohmann16json_abi_v3_11_36detail19json_sax_dom_parserINS0_10basic_jsonINSt3__13mapENS4_6vectorENS4_12basic_stringIcNS4_11char_traitsIcEENS4_9allocatorIcEEEEbxydSA_NS0_14adl_serializerENS6_IhNSA_IhEEEEvEEE12handle_valueIRxEEPSG_OT_.cold.2, symObjAddr: 0xD7E8, symBinAddr: 0x100017DBC, symSize: 0x24 }
  - { offsetInCU: 0x4FB18, offset: 0x5FAF7, size: 0x8, addend: 0x0, symName: __ZNSt3__16vectorIN8nlohmann16json_abi_v3_11_310basic_jsonINS_3mapES0_NS_12basic_stringIcNS_11char_traitsIcEENS_9allocatorIcEEEEbxydS8_NS2_14adl_serializerENS0_IhNS8_IhEEEEvEENS8_ISE_EEE24__emplace_back_slow_pathIJRSA_EEEvDpOT_, symObjAddr: 0xCC40, symBinAddr: 0x10000E5A4, symSize: 0x12C }
  - { offsetInCU: 0x50048, offset: 0x60027, size: 0x8, addend: 0x0, symName: __ZN8nlohmann16json_abi_v3_11_36detail19json_sax_dom_parserINS0_10basic_jsonINSt3__13mapENS4_6vectorENS4_12basic_stringIcNS4_11char_traitsIcEENS4_9allocatorIcEEEEbxydSA_NS0_14adl_serializerENS6_IhNSA_IhEEEEvEEE12handle_valueIRSC_EEPSG_OT_.cold.1, symObjAddr: 0xD80C, symBinAddr: 0x100017DE0, symSize: 0x24 }
  - { offsetInCU: 0x50060, offset: 0x6003F, size: 0x8, addend: 0x0, symName: __ZN8nlohmann16json_abi_v3_11_36detail19json_sax_dom_parserINS0_10basic_jsonINSt3__13mapENS4_6vectorENS4_12basic_stringIcNS4_11char_traitsIcEENS4_9allocatorIcEEEEbxydSA_NS0_14adl_serializerENS6_IhNSA_IhEEEEvEEE12handle_valueIRSC_EEPSG_OT_.cold.2, symObjAddr: 0xD830, symBinAddr: 0x100017E04, symSize: 0x24 }
  - { offsetInCU: 0x5011F, offset: 0x600FE, size: 0x8, addend: 0x0, symName: __ZNSt3__16vectorIN8nlohmann16json_abi_v3_11_310basic_jsonINS_3mapES0_NS_12basic_stringIcNS_11char_traitsIcEENS_9allocatorIcEEEEbxydS8_NS2_14adl_serializerENS0_IhNS8_IhEEEEvEENS8_ISE_EEE24__emplace_back_slow_pathIJRyEEEvDpOT_, symObjAddr: 0xCE78, symBinAddr: 0x10000E7DC, symSize: 0x11C }
  - { offsetInCU: 0x506B9, offset: 0x60698, size: 0x8, addend: 0x0, symName: __ZN8nlohmann16json_abi_v3_11_310basic_jsonINSt3__13mapENS2_6vectorENS2_12basic_stringIcNS2_11char_traitsIcEENS2_9allocatorIcEEEEbxydS8_NS0_14adl_serializerENS4_IhNS8_IhEEEEvEixESA_, symObjAddr: 0xCF94, symBinAddr: 0x10000E8F8, symSize: 0x120 }
  - { offsetInCU: 0x506CF, offset: 0x606AE, size: 0x8, addend: 0x0, symName: __ZN8nlohmann16json_abi_v3_11_36detail19json_sax_dom_parserINS0_10basic_jsonINSt3__13mapENS4_6vectorENS4_12basic_stringIcNS4_11char_traitsIcEENS4_9allocatorIcEEEEbxydSA_NS0_14adl_serializerENS6_IhNSA_IhEEEEvEEE12handle_valueIRyEEPSG_OT_.cold.1, symObjAddr: 0xD854, symBinAddr: 0x100017E28, symSize: 0x24 }
  - { offsetInCU: 0x506E7, offset: 0x606C6, size: 0x8, addend: 0x0, symName: __ZN8nlohmann16json_abi_v3_11_36detail19json_sax_dom_parserINS0_10basic_jsonINSt3__13mapENS4_6vectorENS4_12basic_stringIcNS4_11char_traitsIcEENS4_9allocatorIcEEEEbxydSA_NS0_14adl_serializerENS6_IhNSA_IhEEEEvEEE12handle_valueIRyEEPSG_OT_.cold.2, symObjAddr: 0xD878, symBinAddr: 0x100017E4C, symSize: 0x24 }
  - { offsetInCU: 0x50793, offset: 0x60772, size: 0x8, addend: 0x0, symName: __ZNSt3__16__treeINS_12__value_typeINS_12basic_stringIcNS_11char_traitsIcEENS_9allocatorIcEEEEN8nlohmann16json_abi_v3_11_310basic_jsonINS_3mapENS_6vectorES7_bxydS5_NS9_14adl_serializerENSC_IhNS5_IhEEEEvEEEENS_19__map_value_compareIS7_SH_NS_4lessIvEELb1EEENS5_ISH_EEE25__emplace_unique_key_argsIS7_JS7_DnEEENS_4pairINS_15__tree_iteratorISH_PNS_11__tree_nodeISH_PvEElEEbEERKT_DpOT0_, symObjAddr: 0xD154, symBinAddr: 0x10000EAB8, symSize: 0x168 }
  - { offsetInCU: 0x50F89, offset: 0x60F68, size: 0x8, addend: 0x0, symName: _OUTLINED_FUNCTION_0, symObjAddr: 0xD89C, symBinAddr: 0x10000EC20, symSize: 0x8 }
  - { offsetInCU: 0x50FA1, offset: 0x60F80, size: 0x8, addend: 0x0, symName: _OUTLINED_FUNCTION_1, symObjAddr: 0xD8A4, symBinAddr: 0x10000EC28, symSize: 0x8 }
  - { offsetInCU: 0x50FB9, offset: 0x60F98, size: 0x8, addend: 0x0, symName: _OUTLINED_FUNCTION_2, symObjAddr: 0xD8AC, symBinAddr: 0x10000EC30, symSize: 0x8 }
  - { offsetInCU: 0x50FD1, offset: 0x60FB0, size: 0x8, addend: 0x0, symName: _OUTLINED_FUNCTION_3, symObjAddr: 0xD8B4, symBinAddr: 0x10000EC38, symSize: 0x8 }
  - { offsetInCU: 0xFC4, offset: 0x6207E, size: 0x8, addend: 0x0, symName: __ZN8nlohmann16json_abi_v3_11_36detail6concatINSt3__112basic_stringIcNS3_11char_traitsIcEENS3_9allocatorIcEEEEJRA52_KcPSA_EEET_DpOT0_, symObjAddr: 0xEBCC, symBinAddr: 0x10001093C, symSize: 0xA0 }
  - { offsetInCU: 0x1AEF5, offset: 0x7BFAF, size: 0x8, addend: 0x0, symName: __ZN15KrakenRequesterC2Ev, symObjAddr: 0x0, symBinAddr: 0x10000EC40, symSize: 0xC4 }
  - { offsetInCU: 0x1B892, offset: 0x7C94C, size: 0x8, addend: 0x0, symName: __ZN15KrakenRequesterC1Ev, symObjAddr: 0x164, symBinAddr: 0x10000ED04, symSize: 0xC4 }
  - { offsetInCU: 0x1B8E7, offset: 0x7C9A1, size: 0x8, addend: 0x0, symName: __ZN15KrakenRequesterC1Ev, symObjAddr: 0x164, symBinAddr: 0x10000ED04, symSize: 0xC4 }
  - { offsetInCU: 0x1C1C9, offset: 0x7D283, size: 0x8, addend: 0x0, symName: __ZN15KrakenRequester7getSignERKNSt3__112basic_stringIcNS0_11char_traitsIcEENS0_9allocatorIcEEEES8_S8_S8_S8_S8_S8_, symObjAddr: 0x228, symBinAddr: 0x10000EDC8, symSize: 0x694 }
  - { offsetInCU: 0x1F36E, offset: 0x80428, size: 0x8, addend: 0x0, symName: __ZN15KrakenRequester6getBBOERKNSt3__112basic_stringIcNS0_11char_traitsIcEENS0_9allocatorIcEEEES8_, symObjAddr: 0x8BC, symBinAddr: 0x10000F45C, symSize: 0x4CC }
  - { offsetInCU: 0x2208A, offset: 0x83144, size: 0x8, addend: 0x0, symName: __ZN8nlohmann16json_abi_v3_11_310basic_jsonINSt3__13mapENS2_6vectorENS2_12basic_stringIcNS2_11char_traitsIcEENS2_9allocatorIcEEEEbxydS8_NS0_14adl_serializerENS4_IhNS8_IhEEEEvEixEm, symObjAddr: 0x1174, symBinAddr: 0x10000F928, symSize: 0x230 }
  - { offsetInCU: 0x248E3, offset: 0x8599D, size: 0x8, addend: 0x0, symName: __ZNSt3__16vectorIN8nlohmann16json_abi_v3_11_310basic_jsonINS_3mapES0_NS_12basic_stringIcNS_11char_traitsIcEENS_9allocatorIcEEEEbxydS8_NS2_14adl_serializerENS0_IhNS8_IhEEEEvEENS8_ISE_EEE8__appendEm, symObjAddr: 0xEC6C, symBinAddr: 0x1000109DC, symSize: 0x160 }
  - { offsetInCU: 0x26E5E, offset: 0x87F18, size: 0x8, addend: 0x0, symName: __ZN15KrakenRequester14buyMarketOrderERKNSt3__112basic_stringIcNS0_11char_traitsIcEENS0_9allocatorIcEEEEd, symObjAddr: 0x1470, symBinAddr: 0x10000FB58, symSize: 0xD60 }
  - { offsetInCU: 0x2C24A, offset: 0x8D304, size: 0x8, addend: 0x0, symName: __ZNSt3__119basic_ostringstreamIcNS_11char_traitsIcEENS_9allocatorIcEEED1Ev, symObjAddr: 0x21D0, symBinAddr: 0x1000108B8, symSize: 0x84 }
  - { offsetInCU: 0x36852, offset: 0x9790C, size: 0x8, addend: 0x0, symName: __ZN8nlohmann16json_abi_v3_11_36detail5lexerINS0_10basic_jsonINSt3__13mapENS4_6vectorENS4_12basic_stringIcNS4_11char_traitsIcEENS4_9allocatorIcEEEEbxydSA_NS0_14adl_serializerENS6_IhNSA_IhEEEEvEENS1_22iterator_input_adapterINS4_11__wrap_iterIPKcEEEEE4scanEv.cold.1, symObjAddr: 0xF0C4, symBinAddr: 0x100017E70, symSize: 0x24 }
  - { offsetInCU: 0x36C1C, offset: 0x97CD6, size: 0x8, addend: 0x0, symName: __ZN8nlohmann16json_abi_v3_11_36detail5lexerINS0_10basic_jsonINSt3__13mapENS4_6vectorENS4_12basic_stringIcNS4_11char_traitsIcEENS4_9allocatorIcEEEEbxydSA_NS0_14adl_serializerENS6_IhNSA_IhEEEEvEENS1_22iterator_input_adapterINS4_11__wrap_iterIPKcEEEEE12scan_commentEv.cold.1, symObjAddr: 0xF0E8, symBinAddr: 0x100017E94, symSize: 0x24 }
  - { offsetInCU: 0x36F83, offset: 0x9803D, size: 0x8, addend: 0x0, symName: __ZN8nlohmann16json_abi_v3_11_36detail5lexerINS0_10basic_jsonINSt3__13mapENS4_6vectorENS4_12basic_stringIcNS4_11char_traitsIcEENS4_9allocatorIcEEEEbxydSA_NS0_14adl_serializerENS6_IhNSA_IhEEEEvEENS1_22iterator_input_adapterINS4_11__wrap_iterIPKcEEEEE11scan_stringEv.cold.2, symObjAddr: 0xF134, symBinAddr: 0x100017EE0, symSize: 0x28 }
  - { offsetInCU: 0x36F9B, offset: 0x98055, size: 0x8, addend: 0x0, symName: __ZN8nlohmann16json_abi_v3_11_36detail5lexerINS0_10basic_jsonINSt3__13mapENS4_6vectorENS4_12basic_stringIcNS4_11char_traitsIcEENS4_9allocatorIcEEEEbxydSA_NS0_14adl_serializerENS6_IhNSA_IhEEEEvEENS1_22iterator_input_adapterINS4_11__wrap_iterIPKcEEEEE11scan_stringEv.cold.1, symObjAddr: 0xF10C, symBinAddr: 0x100017EB8, symSize: 0x28 }
  - { offsetInCU: 0x36FF5, offset: 0x980AF, size: 0x8, addend: 0x0, symName: __ZN8nlohmann16json_abi_v3_11_36detail5lexerINS0_10basic_jsonINSt3__13mapENS4_6vectorENS4_12basic_stringIcNS4_11char_traitsIcEENS4_9allocatorIcEEEEbxydSA_NS0_14adl_serializerENS6_IhNSA_IhEEEEvEENS1_22iterator_input_adapterINS4_11__wrap_iterIPKcEEEEE11scan_numberEv.cold.2, symObjAddr: 0xF184, symBinAddr: 0x100017F30, symSize: 0x28 }
  - { offsetInCU: 0x3700D, offset: 0x980C7, size: 0x8, addend: 0x0, symName: __ZN8nlohmann16json_abi_v3_11_36detail5lexerINS0_10basic_jsonINSt3__13mapENS4_6vectorENS4_12basic_stringIcNS4_11char_traitsIcEENS4_9allocatorIcEEEEbxydSA_NS0_14adl_serializerENS6_IhNSA_IhEEEEvEENS1_22iterator_input_adapterINS4_11__wrap_iterIPKcEEEEE11scan_numberEv.cold.3, symObjAddr: 0xF1AC, symBinAddr: 0x100017F58, symSize: 0x28 }
  - { offsetInCU: 0x37025, offset: 0x980DF, size: 0x8, addend: 0x0, symName: __ZN8nlohmann16json_abi_v3_11_36detail5lexerINS0_10basic_jsonINSt3__13mapENS4_6vectorENS4_12basic_stringIcNS4_11char_traitsIcEENS4_9allocatorIcEEEEbxydSA_NS0_14adl_serializerENS6_IhNSA_IhEEEEvEENS1_22iterator_input_adapterINS4_11__wrap_iterIPKcEEEEE11scan_numberEv.cold.4, symObjAddr: 0xF1D4, symBinAddr: 0x100017F80, symSize: 0x28 }
  - { offsetInCU: 0x3703D, offset: 0x980F7, size: 0x8, addend: 0x0, symName: __ZN8nlohmann16json_abi_v3_11_36detail5lexerINS0_10basic_jsonINSt3__13mapENS4_6vectorENS4_12basic_stringIcNS4_11char_traitsIcEENS4_9allocatorIcEEEEbxydSA_NS0_14adl_serializerENS6_IhNSA_IhEEEEvEENS1_22iterator_input_adapterINS4_11__wrap_iterIPKcEEEEE11scan_numberEv.cold.5, symObjAddr: 0xF1FC, symBinAddr: 0x100017FA8, symSize: 0x24 }
  - { offsetInCU: 0x3706B, offset: 0x98125, size: 0x8, addend: 0x0, symName: __ZN8nlohmann16json_abi_v3_11_36detail5lexerINS0_10basic_jsonINSt3__13mapENS4_6vectorENS4_12basic_stringIcNS4_11char_traitsIcEENS4_9allocatorIcEEEEbxydSA_NS0_14adl_serializerENS6_IhNSA_IhEEEEvEENS1_22iterator_input_adapterINS4_11__wrap_iterIPKcEEEEE11scan_numberEv.cold.1, symObjAddr: 0xF15C, symBinAddr: 0x100017F08, symSize: 0x28 }
  - { offsetInCU: 0x37083, offset: 0x9813D, size: 0x8, addend: 0x0, symName: __ZN8nlohmann16json_abi_v3_11_36detail5lexerINS0_10basic_jsonINSt3__13mapENS4_6vectorENS4_12basic_stringIcNS4_11char_traitsIcEENS4_9allocatorIcEEEEbxydSA_NS0_14adl_serializerENS6_IhNSA_IhEEEEvEENS1_22iterator_input_adapterINS4_11__wrap_iterIPKcEEEEE13get_codepointEv.cold.1, symObjAddr: 0xF220, symBinAddr: 0x100017FCC, symSize: 0x28 }
  - { offsetInCU: 0x3ECE6, offset: 0x9FDA0, size: 0x8, addend: 0x0, symName: __ZN8nlohmann16json_abi_v3_11_36detail28json_sax_dom_callback_parserINS0_10basic_jsonINSt3__13mapENS4_6vectorENS4_12basic_stringIcNS4_11char_traitsIcEENS4_9allocatorIcEEEEbxydSA_NS0_14adl_serializerENS6_IhNSA_IhEEEEvEEE10end_objectEv.cold.3, symObjAddr: 0xF298, symBinAddr: 0x100018044, symSize: 0x28 }
  - { offsetInCU: 0x3ED14, offset: 0x9FDCE, size: 0x8, addend: 0x0, symName: __ZN8nlohmann16json_abi_v3_11_36detail28json_sax_dom_callback_parserINS0_10basic_jsonINSt3__13mapENS4_6vectorENS4_12basic_stringIcNS4_11char_traitsIcEENS4_9allocatorIcEEEEbxydSA_NS0_14adl_serializerENS6_IhNSA_IhEEEEvEEE10end_objectEv.cold.1, symObjAddr: 0xF248, symBinAddr: 0x100017FF4, symSize: 0x28 }
  - { offsetInCU: 0x3ED2C, offset: 0x9FDE6, size: 0x8, addend: 0x0, symName: __ZN8nlohmann16json_abi_v3_11_36detail28json_sax_dom_callback_parserINS0_10basic_jsonINSt3__13mapENS4_6vectorENS4_12basic_stringIcNS4_11char_traitsIcEENS4_9allocatorIcEEEEbxydSA_NS0_14adl_serializerENS6_IhNSA_IhEEEEvEEE10end_objectEv.cold.2, symObjAddr: 0xF270, symBinAddr: 0x10001801C, symSize: 0x28 }
  - { offsetInCU: 0x3EE6A, offset: 0x9FF24, size: 0x8, addend: 0x0, symName: __ZN8nlohmann16json_abi_v3_11_36detail28json_sax_dom_callback_parserINS0_10basic_jsonINSt3__13mapENS4_6vectorENS4_12basic_stringIcNS4_11char_traitsIcEENS4_9allocatorIcEEEEbxydSA_NS0_14adl_serializerENS6_IhNSA_IhEEEEvEEE9end_arrayEv.cold.1, symObjAddr: 0xF2C0, symBinAddr: 0x10001806C, symSize: 0x28 }
  - { offsetInCU: 0x3EE82, offset: 0x9FF3C, size: 0x8, addend: 0x0, symName: __ZN8nlohmann16json_abi_v3_11_36detail28json_sax_dom_callback_parserINS0_10basic_jsonINSt3__13mapENS4_6vectorENS4_12basic_stringIcNS4_11char_traitsIcEENS4_9allocatorIcEEEEbxydSA_NS0_14adl_serializerENS6_IhNSA_IhEEEEvEEE9end_arrayEv.cold.2, symObjAddr: 0xF2E8, symBinAddr: 0x100018094, symSize: 0x28 }
  - { offsetInCU: 0x3F2AA, offset: 0xA0364, size: 0x8, addend: 0x0, symName: __ZN8nlohmann16json_abi_v3_11_36detail28json_sax_dom_callback_parserINS0_10basic_jsonINSt3__13mapENS4_6vectorENS4_12basic_stringIcNS4_11char_traitsIcEENS4_9allocatorIcEEEEbxydSA_NS0_14adl_serializerENS6_IhNSA_IhEEEEvEEE12handle_valueINS1_7value_tEEENS4_4pairIbPSG_EEOT_b.cold.1, symObjAddr: 0xF310, symBinAddr: 0x1000180BC, symSize: 0x24 }
  - { offsetInCU: 0x3F47C, offset: 0xA0536, size: 0x8, addend: 0x0, symName: __ZNK8nlohmann16json_abi_v3_11_36detail9iter_implINS0_10basic_jsonINSt3__13mapENS4_6vectorENS4_12basic_stringIcNS4_11char_traitsIcEENS4_9allocatorIcEEEEbxydSA_NS0_14adl_serializerENS6_IhNSA_IhEEEEvEEEptEv.cold.3, symObjAddr: 0xF384, symBinAddr: 0x100018130, symSize: 0x28 }
  - { offsetInCU: 0x3F494, offset: 0xA054E, size: 0x8, addend: 0x0, symName: __ZNK8nlohmann16json_abi_v3_11_36detail9iter_implINS0_10basic_jsonINSt3__13mapENS4_6vectorENS4_12basic_stringIcNS4_11char_traitsIcEENS4_9allocatorIcEEEEbxydSA_NS0_14adl_serializerENS6_IhNSA_IhEEEEvEEEptEv.cold.1, symObjAddr: 0xF334, symBinAddr: 0x1000180E0, symSize: 0x28 }
  - { offsetInCU: 0x3F4AC, offset: 0xA0566, size: 0x8, addend: 0x0, symName: __ZNK8nlohmann16json_abi_v3_11_36detail9iter_implINS0_10basic_jsonINSt3__13mapENS4_6vectorENS4_12basic_stringIcNS4_11char_traitsIcEENS4_9allocatorIcEEEEbxydSA_NS0_14adl_serializerENS6_IhNSA_IhEEEEvEEEptEv.cold.2, symObjAddr: 0xF35C, symBinAddr: 0x100018108, symSize: 0x28 }
  - { offsetInCU: 0x3FF1F, offset: 0xA0FD9, size: 0x8, addend: 0x0, symName: __ZNK8nlohmann16json_abi_v3_11_36detail9iter_implINS0_10basic_jsonINSt3__13mapENS4_6vectorENS4_12basic_stringIcNS4_11char_traitsIcEENS4_9allocatorIcEEEEbxydSA_NS0_14adl_serializerENS6_IhNSA_IhEEEEvEEEeqISH_LDn0EEEbRKT_.cold.1, symObjAddr: 0xF3AC, symBinAddr: 0x100018158, symSize: 0x28 }
  - { offsetInCU: 0x40D42, offset: 0xA1DFC, size: 0x8, addend: 0x0, symName: __ZN8nlohmann16json_abi_v3_11_36detail28json_sax_dom_callback_parserINS0_10basic_jsonINSt3__13mapENS4_6vectorENS4_12basic_stringIcNS4_11char_traitsIcEENS4_9allocatorIcEEEEbxydSA_NS0_14adl_serializerENS6_IhNSA_IhEEEEvEEE12handle_valueIRdEENS4_4pairIbPSG_EEOT_b.cold.1, symObjAddr: 0xF3D4, symBinAddr: 0x100018180, symSize: 0x24 }
  - { offsetInCU: 0x40E71, offset: 0xA1F2B, size: 0x8, addend: 0x0, symName: __ZN8nlohmann16json_abi_v3_11_36detail28json_sax_dom_callback_parserINS0_10basic_jsonINSt3__13mapENS4_6vectorENS4_12basic_stringIcNS4_11char_traitsIcEENS4_9allocatorIcEEEEbxydSA_NS0_14adl_serializerENS6_IhNSA_IhEEEEvEEE12handle_valueIRbEENS4_4pairIbPSG_EEOT_b.cold.1, symObjAddr: 0xF3F8, symBinAddr: 0x1000181A4, symSize: 0x24 }
  - { offsetInCU: 0x40E89, offset: 0xA1F43, size: 0x8, addend: 0x0, symName: __ZN8nlohmann16json_abi_v3_11_36detail28json_sax_dom_callback_parserINS0_10basic_jsonINSt3__13mapENS4_6vectorENS4_12basic_stringIcNS4_11char_traitsIcEENS4_9allocatorIcEEEEbxydSA_NS0_14adl_serializerENS6_IhNSA_IhEEEEvEEE12handle_valueIDnEENS4_4pairIbPSG_EEOT_b.cold.1, symObjAddr: 0xF41C, symBinAddr: 0x1000181C8, symSize: 0x24 }
  - { offsetInCU: 0x40FB8, offset: 0xA2072, size: 0x8, addend: 0x0, symName: __ZN8nlohmann16json_abi_v3_11_36detail28json_sax_dom_callback_parserINS0_10basic_jsonINSt3__13mapENS4_6vectorENS4_12basic_stringIcNS4_11char_traitsIcEENS4_9allocatorIcEEEEbxydSA_NS0_14adl_serializerENS6_IhNSA_IhEEEEvEEE12handle_valueIRxEENS4_4pairIbPSG_EEOT_b.cold.1, symObjAddr: 0xF440, symBinAddr: 0x1000181EC, symSize: 0x24 }
  - { offsetInCU: 0x40FD0, offset: 0xA208A, size: 0x8, addend: 0x0, symName: __ZN8nlohmann16json_abi_v3_11_36detail28json_sax_dom_callback_parserINS0_10basic_jsonINSt3__13mapENS4_6vectorENS4_12basic_stringIcNS4_11char_traitsIcEENS4_9allocatorIcEEEEbxydSA_NS0_14adl_serializerENS6_IhNSA_IhEEEEvEEE12handle_valueIRSC_EENS4_4pairIbPSG_EEOT_b.cold.1, symObjAddr: 0xF464, symBinAddr: 0x100018210, symSize: 0x24 }
  - { offsetInCU: 0x410FF, offset: 0xA21B9, size: 0x8, addend: 0x0, symName: __ZN8nlohmann16json_abi_v3_11_36detail28json_sax_dom_callback_parserINS0_10basic_jsonINSt3__13mapENS4_6vectorENS4_12basic_stringIcNS4_11char_traitsIcEENS4_9allocatorIcEEEEbxydSA_NS0_14adl_serializerENS6_IhNSA_IhEEEEvEEE12handle_valueIRyEENS4_4pairIbPSG_EEOT_b.cold.1, symObjAddr: 0xF488, symBinAddr: 0x100018234, symSize: 0x24 }
  - { offsetInCU: 0x41F7C, offset: 0xA3036, size: 0x8, addend: 0x0, symName: __ZN8nlohmann16json_abi_v3_11_36detail19json_sax_dom_parserINS0_10basic_jsonINSt3__13mapENS4_6vectorENS4_12basic_stringIcNS4_11char_traitsIcEENS4_9allocatorIcEEEEbxydSA_NS0_14adl_serializerENS6_IhNSA_IhEEEEvEEE12handle_valueINS1_7value_tEEEPSG_OT_.cold.1, symObjAddr: 0xF4AC, symBinAddr: 0x100018258, symSize: 0x24 }
  - { offsetInCU: 0x41F94, offset: 0xA304E, size: 0x8, addend: 0x0, symName: __ZN8nlohmann16json_abi_v3_11_36detail19json_sax_dom_parserINS0_10basic_jsonINSt3__13mapENS4_6vectorENS4_12basic_stringIcNS4_11char_traitsIcEENS4_9allocatorIcEEEEbxydSA_NS0_14adl_serializerENS6_IhNSA_IhEEEEvEEE12handle_valueINS1_7value_tEEEPSG_OT_.cold.2, symObjAddr: 0xF4D0, symBinAddr: 0x10001827C, symSize: 0x24 }
  - { offsetInCU: 0x424AD, offset: 0xA3567, size: 0x8, addend: 0x0, symName: __ZN8nlohmann16json_abi_v3_11_36detail19json_sax_dom_parserINS0_10basic_jsonINSt3__13mapENS4_6vectorENS4_12basic_stringIcNS4_11char_traitsIcEENS4_9allocatorIcEEEEbxydSA_NS0_14adl_serializerENS6_IhNSA_IhEEEEvEEE12handle_valueIRdEEPSG_OT_.cold.1, symObjAddr: 0xF4F4, symBinAddr: 0x1000182A0, symSize: 0x24 }
  - { offsetInCU: 0x424C5, offset: 0xA357F, size: 0x8, addend: 0x0, symName: __ZN8nlohmann16json_abi_v3_11_36detail19json_sax_dom_parserINS0_10basic_jsonINSt3__13mapENS4_6vectorENS4_12basic_stringIcNS4_11char_traitsIcEENS4_9allocatorIcEEEEbxydSA_NS0_14adl_serializerENS6_IhNSA_IhEEEEvEEE12handle_valueIRdEEPSG_OT_.cold.2, symObjAddr: 0xF518, symBinAddr: 0x1000182C4, symSize: 0x24 }
  - { offsetInCU: 0x4292F, offset: 0xA39E9, size: 0x8, addend: 0x0, symName: __ZN8nlohmann16json_abi_v3_11_36detail19json_sax_dom_parserINS0_10basic_jsonINSt3__13mapENS4_6vectorENS4_12basic_stringIcNS4_11char_traitsIcEENS4_9allocatorIcEEEEbxydSA_NS0_14adl_serializerENS6_IhNSA_IhEEEEvEEE12handle_valueIRbEEPSG_OT_.cold.1, symObjAddr: 0xF53C, symBinAddr: 0x1000182E8, symSize: 0x24 }
  - { offsetInCU: 0x42947, offset: 0xA3A01, size: 0x8, addend: 0x0, symName: __ZN8nlohmann16json_abi_v3_11_36detail19json_sax_dom_parserINS0_10basic_jsonINSt3__13mapENS4_6vectorENS4_12basic_stringIcNS4_11char_traitsIcEENS4_9allocatorIcEEEEbxydSA_NS0_14adl_serializerENS6_IhNSA_IhEEEEvEEE12handle_valueIRbEEPSG_OT_.cold.2, symObjAddr: 0xF560, symBinAddr: 0x10001830C, symSize: 0x24 }
  - { offsetInCU: 0x42DFA, offset: 0xA3EB4, size: 0x8, addend: 0x0, symName: __ZN8nlohmann16json_abi_v3_11_36detail19json_sax_dom_parserINS0_10basic_jsonINSt3__13mapENS4_6vectorENS4_12basic_stringIcNS4_11char_traitsIcEENS4_9allocatorIcEEEEbxydSA_NS0_14adl_serializerENS6_IhNSA_IhEEEEvEEE12handle_valueIDnEEPSG_OT_.cold.1, symObjAddr: 0xF584, symBinAddr: 0x100018330, symSize: 0x24 }
  - { offsetInCU: 0x42E12, offset: 0xA3ECC, size: 0x8, addend: 0x0, symName: __ZN8nlohmann16json_abi_v3_11_36detail19json_sax_dom_parserINS0_10basic_jsonINSt3__13mapENS4_6vectorENS4_12basic_stringIcNS4_11char_traitsIcEENS4_9allocatorIcEEEEbxydSA_NS0_14adl_serializerENS6_IhNSA_IhEEEEvEEE12handle_valueIDnEEPSG_OT_.cold.2, symObjAddr: 0xF5A8, symBinAddr: 0x100018354, symSize: 0x24 }
  - { offsetInCU: 0x43347, offset: 0xA4401, size: 0x8, addend: 0x0, symName: __ZN8nlohmann16json_abi_v3_11_36detail19json_sax_dom_parserINS0_10basic_jsonINSt3__13mapENS4_6vectorENS4_12basic_stringIcNS4_11char_traitsIcEENS4_9allocatorIcEEEEbxydSA_NS0_14adl_serializerENS6_IhNSA_IhEEEEvEEE12handle_valueIRxEEPSG_OT_.cold.1, symObjAddr: 0xF5CC, symBinAddr: 0x100018378, symSize: 0x24 }
  - { offsetInCU: 0x4335F, offset: 0xA4419, size: 0x8, addend: 0x0, symName: __ZN8nlohmann16json_abi_v3_11_36detail19json_sax_dom_parserINS0_10basic_jsonINSt3__13mapENS4_6vectorENS4_12basic_stringIcNS4_11char_traitsIcEENS4_9allocatorIcEEEEbxydSA_NS0_14adl_serializerENS6_IhNSA_IhEEEEvEEE12handle_valueIRxEEPSG_OT_.cold.2, symObjAddr: 0xF5F0, symBinAddr: 0x10001839C, symSize: 0x24 }
  - { offsetInCU: 0x43783, offset: 0xA483D, size: 0x8, addend: 0x0, symName: __ZN8nlohmann16json_abi_v3_11_36detail19json_sax_dom_parserINS0_10basic_jsonINSt3__13mapENS4_6vectorENS4_12basic_stringIcNS4_11char_traitsIcEENS4_9allocatorIcEEEEbxydSA_NS0_14adl_serializerENS6_IhNSA_IhEEEEvEEE12handle_valueIRSC_EEPSG_OT_.cold.1, symObjAddr: 0xF614, symBinAddr: 0x1000183C0, symSize: 0x24 }
  - { offsetInCU: 0x4379B, offset: 0xA4855, size: 0x8, addend: 0x0, symName: __ZN8nlohmann16json_abi_v3_11_36detail19json_sax_dom_parserINS0_10basic_jsonINSt3__13mapENS4_6vectorENS4_12basic_stringIcNS4_11char_traitsIcEENS4_9allocatorIcEEEEbxydSA_NS0_14adl_serializerENS6_IhNSA_IhEEEEvEEE12handle_valueIRSC_EEPSG_OT_.cold.2, symObjAddr: 0xF638, symBinAddr: 0x1000183E4, symSize: 0x24 }
  - { offsetInCU: 0x43C11, offset: 0xA4CCB, size: 0x8, addend: 0x0, symName: __ZN8nlohmann16json_abi_v3_11_36detail19json_sax_dom_parserINS0_10basic_jsonINSt3__13mapENS4_6vectorENS4_12basic_stringIcNS4_11char_traitsIcEENS4_9allocatorIcEEEEbxydSA_NS0_14adl_serializerENS6_IhNSA_IhEEEEvEEE12handle_valueIRyEEPSG_OT_.cold.1, symObjAddr: 0xF65C, symBinAddr: 0x100018408, symSize: 0x24 }
  - { offsetInCU: 0x43C29, offset: 0xA4CE3, size: 0x8, addend: 0x0, symName: __ZN8nlohmann16json_abi_v3_11_36detail19json_sax_dom_parserINS0_10basic_jsonINSt3__13mapENS4_6vectorENS4_12basic_stringIcNS4_11char_traitsIcEENS4_9allocatorIcEEEEbxydSA_NS0_14adl_serializerENS6_IhNSA_IhEEEEvEEE12handle_valueIRyEEPSG_OT_.cold.2, symObjAddr: 0xF680, symBinAddr: 0x10001842C, symSize: 0x24 }
  - { offsetInCU: 0x44E02, offset: 0xA5EBC, size: 0x8, addend: 0x0, symName: __ZN8nlohmann16json_abi_v3_11_36detail6concatINSt3__112basic_stringIcNS3_11char_traitsIcEENS3_9allocatorIcEEEEJRA52_KcPSA_EEET_DpOT0_, symObjAddr: 0xEBCC, symBinAddr: 0x10001093C, symSize: 0xA0 }
  - { offsetInCU: 0x46698, offset: 0xA7752, size: 0x8, addend: 0x0, symName: _OUTLINED_FUNCTION_0, symObjAddr: 0xF6A4, symBinAddr: 0x100010B3C, symSize: 0x8 }
  - { offsetInCU: 0x466B0, offset: 0xA776A, size: 0x8, addend: 0x0, symName: _OUTLINED_FUNCTION_1, symObjAddr: 0xF6AC, symBinAddr: 0x100010B44, symSize: 0x8 }
  - { offsetInCU: 0x466C8, offset: 0xA7782, size: 0x8, addend: 0x0, symName: _OUTLINED_FUNCTION_2, symObjAddr: 0xF6B4, symBinAddr: 0x100010B4C, symSize: 0x8 }
  - { offsetInCU: 0x466E0, offset: 0xA779A, size: 0x8, addend: 0x0, symName: _OUTLINED_FUNCTION_3, symObjAddr: 0xF6BC, symBinAddr: 0x100010B54, symSize: 0x8 }
  - { offsetInCU: 0x1095, offset: 0xA891F, size: 0x8, addend: 0x0, symName: __ZN8nlohmann16json_abi_v3_11_36detail9dtoa_impl36get_cached_power_for_binary_exponentEi, symObjAddr: 0x12B4C, symBinAddr: 0x1000163A8, symSize: 0xB4 }
  - { offsetInCU: 0x10C0, offset: 0xA894A, size: 0x8, addend: 0x0, symName: __ZZN8nlohmann16json_abi_v3_11_36detail9dtoa_impl36get_cached_power_for_binary_exponentEiE13kCachedPowers, symObjAddr: 0x15C50, symBinAddr: 0x10001F380, symSize: 0x0 }
  - { offsetInCU: 0x11AE, offset: 0xA8A38, size: 0x8, addend: 0x0, symName: __ZN8nlohmann16json_abi_v3_11_36detail9dtoa_impl16grisu2_digit_genEPcRiS4_NS2_5diyfpES5_S5_, symObjAddr: 0x12C00, symBinAddr: 0x10001645C, symSize: 0x2E4 }
  - { offsetInCU: 0x1350, offset: 0xA8BDA, size: 0x8, addend: 0x0, symName: __ZN8nlohmann16json_abi_v3_11_36detail9dtoa_impl18compute_boundariesIdEENS2_10boundariesET_, symObjAddr: 0x128C0, symBinAddr: 0x10001611C, symSize: 0x134 }
  - { offsetInCU: 0x151D, offset: 0xA8DA7, size: 0x8, addend: 0x0, symName: __ZN8nlohmann16json_abi_v3_11_36detail9dtoa_impl6grisu2EPcRiS4_NS2_5diyfpES5_S5_, symObjAddr: 0x129F4, symBinAddr: 0x100016250, symSize: 0x158 }
  - { offsetInCU: 0x1783, offset: 0xA900D, size: 0x8, addend: 0x0, symName: __ZN8nlohmann16json_abi_v3_11_36detail9dtoa_impl36get_cached_power_for_binary_exponentEi, symObjAddr: 0x12B4C, symBinAddr: 0x1000163A8, symSize: 0xB4 }
  - { offsetInCU: 0x178E, offset: 0xA9018, size: 0x8, addend: 0x0, symName: __ZN8nlohmann16json_abi_v3_11_36detail9dtoa_impl13format_bufferEPciiii, symObjAddr: 0x12670, symBinAddr: 0x100015ECC, symSize: 0x250 }
  - { offsetInCU: 0x1881, offset: 0xA910B, size: 0x8, addend: 0x0, symName: __ZN8nlohmann16json_abi_v3_11_36detail9dtoa_impl18compute_boundariesIdEENS2_10boundariesET_, symObjAddr: 0x128C0, symBinAddr: 0x10001611C, symSize: 0x134 }
  - { offsetInCU: 0x18FE, offset: 0xA9188, size: 0x8, addend: 0x0, symName: __ZN8nlohmann16json_abi_v3_11_36detail9dtoa_impl16grisu2_digit_genEPcRiS4_NS2_5diyfpES5_S5_, symObjAddr: 0x12C00, symBinAddr: 0x10001645C, symSize: 0x2E4 }
  - { offsetInCU: 0x1B71, offset: 0xA93FB, size: 0x8, addend: 0x0, symName: __ZN8nlohmann16json_abi_v3_11_36detail9dtoa_impl12grisu2_roundEPciyyyy, symObjAddr: 0x12EE4, symBinAddr: 0x100016740, symSize: 0xAC }
  - { offsetInCU: 0x6119, offset: 0xAD9A3, size: 0x8, addend: 0x0, symName: __ZN8nlohmann16json_abi_v3_11_36detail8to_charsIdEEPcS3_PKcT_, symObjAddr: 0x12580, symBinAddr: 0x100015DDC, symSize: 0xF0 }
  - { offsetInCU: 0x6289, offset: 0xADB13, size: 0x8, addend: 0x0, symName: __ZN8nlohmann16json_abi_v3_11_36detail9dtoa_impl13format_bufferEPciiii, symObjAddr: 0x12670, symBinAddr: 0x100015ECC, symSize: 0x250 }
  - { offsetInCU: 0x629D, offset: 0xADB27, size: 0x8, addend: 0x0, symName: __ZN8nlohmann16json_abi_v3_11_36detail6concatINSt3__112basic_stringIcNS3_11char_traitsIcEENS3_9allocatorIcEEEEJRA29_KcS9_RA5_SA_S9_EEET_DpOT0_, symObjAddr: 0x123B0, symBinAddr: 0x100015C0C, symSize: 0x124 }
  - { offsetInCU: 0x680C, offset: 0xAE096, size: 0x8, addend: 0x0, symName: __ZN8nlohmann16json_abi_v3_11_36detail6concatINSt3__112basic_stringIcNS3_11char_traitsIcEENS3_9allocatorIcEEEEJRA39_KcS9_EEET_DpOT0_, symObjAddr: 0x124D4, symBinAddr: 0x100015D30, symSize: 0xAC }
  - { offsetInCU: 0x8C1B, offset: 0xB04A5, size: 0x8, addend: 0x0, symName: __ZNSt3__119piecewise_constructE, symObjAddr: 0x15630, symBinAddr: 0x10001EDE0, symSize: 0x0 }
  - { offsetInCU: 0x1E76E, offset: 0xC5FF8, size: 0x8, addend: 0x0, symName: __ZNSt3__130__uninitialized_allocator_copyB8ue170006INS_9allocatorIN8nlohmann16json_abi_v3_11_310basic_jsonINS_3mapENS_6vectorENS_12basic_stringIcNS_11char_traitsIcEENS1_IcEEEEbxydS1_NS3_14adl_serializerENS6_IhNS1_IhEEEEvEEEEPKNS3_6detail8json_refISF_EESL_PSF_EET2_RT_T0_T1_SN_, symObjAddr: 0x10B04, symBinAddr: 0x100014360, symSize: 0xD0 }
  - { offsetInCU: 0x20696, offset: 0xC7F20, size: 0x8, addend: 0x0, symName: __ZN8nlohmann16json_abi_v3_11_36detail10serializerINS0_10basic_jsonINSt3__13mapENS4_6vectorENS4_12basic_stringIcNS4_11char_traitsIcEENS4_9allocatorIcEEEEbxydSA_NS0_14adl_serializerENS6_IhNSA_IhEEEEvEEE12dump_integerIyLi0EEEvT_, symObjAddr: 0x1207C, symBinAddr: 0x1000158D8, symSize: 0x154 }
  - { offsetInCU: 0x206BA, offset: 0xC7F44, size: 0x8, addend: 0x0, symName: __ZZN8nlohmann16json_abi_v3_11_36detail10serializerINS0_10basic_jsonINSt3__13mapENS4_6vectorENS4_12basic_stringIcNS4_11char_traitsIcEENS4_9allocatorIcEEEEbxydSA_NS0_14adl_serializerENS6_IhNSA_IhEEEEvEEE12dump_integerIyLi0EEEvT_E12digits_to_99, symObjAddr: 0x15ABF, symBinAddr: 0x10001F1EF, symSize: 0x0 }
  - { offsetInCU: 0x207D8, offset: 0xC8062, size: 0x8, addend: 0x0, symName: __ZN8nlohmann16json_abi_v3_11_36detail10serializerINS0_10basic_jsonINSt3__13mapENS4_6vectorENS4_12basic_stringIcNS4_11char_traitsIcEENS4_9allocatorIcEEEEbxydSA_NS0_14adl_serializerENS6_IhNSA_IhEEEEvEEE12dump_integerIxLi0EEEvT_, symObjAddr: 0x121D0, symBinAddr: 0x100015A2C, symSize: 0x1E0 }
  - { offsetInCU: 0x207F3, offset: 0xC807D, size: 0x8, addend: 0x0, symName: __ZN8nlohmann16json_abi_v3_11_36detail10serializerINS0_10basic_jsonINSt3__13mapENS4_6vectorENS4_12basic_stringIcNS4_11char_traitsIcEENS4_9allocatorIcEEEEbxydSA_NS0_14adl_serializerENS6_IhNSA_IhEEEEvEEE12dump_integerIxLi0EEEvT_, symObjAddr: 0x121D0, symBinAddr: 0x100015A2C, symSize: 0x1E0 }
  - { offsetInCU: 0x20817, offset: 0xC80A1, size: 0x8, addend: 0x0, symName: __ZZN8nlohmann16json_abi_v3_11_36detail10serializerINS0_10basic_jsonINSt3__13mapENS4_6vectorENS4_12basic_stringIcNS4_11char_traitsIcEENS4_9allocatorIcEEEEbxydSA_NS0_14adl_serializerENS6_IhNSA_IhEEEEvEEE12dump_integerIxLi0EEEvT_E12digits_to_99, symObjAddr: 0x15B87, symBinAddr: 0x10001F2B7, symSize: 0x0 }
  - { offsetInCU: 0x20984, offset: 0xC820E, size: 0x8, addend: 0x0, symName: __ZN8nlohmann16json_abi_v3_11_36detail6concatINSt3__112basic_stringIcNS3_11char_traitsIcEENS3_9allocatorIcEEEEJRA29_KcS9_RA5_SA_S9_EEET_DpOT0_, symObjAddr: 0x123B0, symBinAddr: 0x100015C0C, symSize: 0x124 }
  - { offsetInCU: 0x23286, offset: 0xCAB10, size: 0x8, addend: 0x0, symName: __ZN17CoinbaseRequesterC2Ev, symObjAddr: 0x0, symBinAddr: 0x100010B5C, symSize: 0x24 }
  - { offsetInCU: 0x2342C, offset: 0xCACB6, size: 0x8, addend: 0x0, symName: __ZN17CoinbaseRequesterC1Ev, symObjAddr: 0x24, symBinAddr: 0x100010B80, symSize: 0x24 }
  - { offsetInCU: 0x23A26, offset: 0xCB2B0, size: 0x8, addend: 0x0, symName: __ZN17CoinbaseRequester6getJWTERKNSt3__112basic_stringIcNS0_11char_traitsIcEENS0_9allocatorIcEEEES8_, symObjAddr: 0x48, symBinAddr: 0x100010BA4, symSize: 0x1E4 }
  - { offsetInCU: 0x24B91, offset: 0xCC41B, size: 0x8, addend: 0x0, symName: __ZN17CoinbaseRequester6getBBOERKNSt3__112basic_stringIcNS0_11char_traitsIcEENS0_9allocatorIcEEEES8_, symObjAddr: 0x2CC, symBinAddr: 0x100010D88, symSize: 0x838 }
  - { offsetInCU: 0x253DA, offset: 0xCCC64, size: 0x8, addend: 0x0, symName: __ZN17CoinbaseRequester6getBBOERKNSt3__112basic_stringIcNS0_11char_traitsIcEENS0_9allocatorIcEEEES8_, symObjAddr: 0x2CC, symBinAddr: 0x100010D88, symSize: 0x838 }
  - { offsetInCU: 0x28934, offset: 0xD01BE, size: 0x8, addend: 0x0, symName: __ZNKSt3__112__hash_tableINS_17__hash_value_typeINS_12basic_stringIcNS_11char_traitsIcEENS_9allocatorIcEEEENS_4pairINS_6chrono10time_pointINS9_12system_clockENS9_8durationIxNS_5ratioILl1ELl1000000EEEEEEES7_EEEENS_22__unordered_map_hasherIS7_SI_NS_4hashIS7_EENS_8equal_toIS7_EELb1EEENS_21__unordered_map_equalIS7_SI_SN_SL_Lb1EEENS5_ISI_EEE4findIS7_EENS_21__hash_const_iteratorIPNS_11__hash_nodeISI_PvEEEERKT_, symObjAddr: 0x36A4, symBinAddr: 0x100012478, symSize: 0x23C }
  - { offsetInCU: 0x28BCC, offset: 0xD0456, size: 0x8, addend: 0x0, symName: __ZNSt3__112__hash_tableINS_17__hash_value_typeINS_12basic_stringIcNS_11char_traitsIcEENS_9allocatorIcEEEENS_4pairINS_6chrono10time_pointINS9_12system_clockENS9_8durationIxNS_5ratioILl1ELl1000000EEEEEEES7_EEEENS_22__unordered_map_hasherIS7_SI_NS_4hashIS7_EENS_8equal_toIS7_EELb1EEENS_21__unordered_map_equalIS7_SI_SN_SL_Lb1EEENS5_ISI_EEE25__emplace_unique_key_argsIS7_JRKNS_21piecewise_construct_tENS_5tupleIJRKS7_EEENSX_IJEEEEEENS8_INS_15__hash_iteratorIPNS_11__hash_nodeISI_PvEEEEbEERKT_DpOT0_, symObjAddr: 0x3D7C, symBinAddr: 0x100012B50, symSize: 0x498 }
  - { offsetInCU: 0x2F2E9, offset: 0xD6B73, size: 0x8, addend: 0x0, symName: __ZN17CoinbaseRequester15postMarketOrderERKNSt3__112basic_stringIcNS0_11char_traitsIcEENS0_9allocatorIcEEEES8_S8_S8_, symObjAddr: 0x11EC, symBinAddr: 0x1000115C0, symSize: 0xBD4 }
  - { offsetInCU: 0x33965, offset: 0xDB1EF, size: 0x8, addend: 0x0, symName: __ZN8nlohmann16json_abi_v3_11_310basic_jsonINSt3__13mapENS2_6vectorENS2_12basic_stringIcNS2_11char_traitsIcEENS2_9allocatorIcEEEEbxydS8_NS0_14adl_serializerENS4_IhNS8_IhEEEEvEC2IRA16_KcA16_cLi0EEEOT_, symObjAddr: 0xF9A0, symBinAddr: 0x1000131FC, symSize: 0xDC }
  - { offsetInCU: 0x33AAE, offset: 0xDB338, size: 0x8, addend: 0x0, symName: __ZN8nlohmann16json_abi_v3_11_310basic_jsonINSt3__13mapENS2_6vectorENS2_12basic_stringIcNS2_11char_traitsIcEENS2_9allocatorIcEEEEbxydS8_NS0_14adl_serializerENS4_IhNS8_IhEEEEvEC2IRKSA_SA_Li0EEEOT_, symObjAddr: 0xFB58, symBinAddr: 0x1000133B4, symSize: 0xDC }
  - { offsetInCU: 0x33BF7, offset: 0xDB481, size: 0x8, addend: 0x0, symName: __ZN8nlohmann16json_abi_v3_11_310basic_jsonINSt3__13mapENS2_6vectorENS2_12basic_stringIcNS2_11char_traitsIcEENS2_9allocatorIcEEEEbxydS8_NS0_14adl_serializerENS4_IhNS8_IhEEEEvEC2ESt16initializer_listINS0_6detail8json_refISE_EEEbNSG_7value_tE, symObjAddr: 0x10314, symBinAddr: 0x100013B70, symSize: 0x2F8 }
  - { offsetInCU: 0x34506, offset: 0xDBD90, size: 0x8, addend: 0x0, symName: __ZN8nlohmann16json_abi_v3_11_310basic_jsonINSt3__13mapENS2_6vectorENS2_12basic_stringIcNS2_11char_traitsIcEENS2_9allocatorIcEEEEbxydS8_NS0_14adl_serializerENS4_IhNS8_IhEEEEvEC2IRA11_KcA11_cLi0EEEOT_, symObjAddr: 0xFC34, symBinAddr: 0x100013490, symSize: 0xDC }
  - { offsetInCU: 0x3464F, offset: 0xDBED9, size: 0x8, addend: 0x0, symName: __ZN8nlohmann16json_abi_v3_11_310basic_jsonINSt3__13mapENS2_6vectorENS2_12basic_stringIcNS2_11char_traitsIcEENS2_9allocatorIcEEEEbxydS8_NS0_14adl_serializerENS4_IhNS8_IhEEEEvEC2IRA5_KcA5_cLi0EEEOT_, symObjAddr: 0xFDEC, symBinAddr: 0x100013648, symSize: 0xDC }
  - { offsetInCU: 0x34798, offset: 0xDC022, size: 0x8, addend: 0x0, symName: __ZN8nlohmann16json_abi_v3_11_310basic_jsonINSt3__13mapENS2_6vectorENS2_12basic_stringIcNS2_11char_traitsIcEENS2_9allocatorIcEEEEbxydS8_NS0_14adl_serializerENS4_IhNS8_IhEEEEvEC2IRA20_KcA20_cLi0EEEOT_, symObjAddr: 0xFFA4, symBinAddr: 0x100013800, symSize: 0xDC }
  - { offsetInCU: 0x348E1, offset: 0xDC16B, size: 0x8, addend: 0x0, symName: __ZN8nlohmann16json_abi_v3_11_310basic_jsonINSt3__13mapENS2_6vectorENS2_12basic_stringIcNS2_11char_traitsIcEENS2_9allocatorIcEEEEbxydS8_NS0_14adl_serializerENS4_IhNS8_IhEEEEvEC2IRA18_KcA18_cLi0EEEOT_, symObjAddr: 0x1015C, symBinAddr: 0x1000139B8, symSize: 0xDC }
  - { offsetInCU: 0x34A2A, offset: 0xDC2B4, size: 0x8, addend: 0x0, symName: __ZNK8nlohmann16json_abi_v3_11_310basic_jsonINSt3__13mapENS2_6vectorENS2_12basic_stringIcNS2_11char_traitsIcEENS2_9allocatorIcEEEEbxydS8_NS0_14adl_serializerENS4_IhNS8_IhEEEEvE4dumpEicbNS0_6detail15error_handler_tE, symObjAddr: 0x1DC0, symBinAddr: 0x100012194, symSize: 0x2E4 }
  - { offsetInCU: 0x35BDF, offset: 0xDD469, size: 0x8, addend: 0x0, symName: __ZN8nlohmann16json_abi_v3_11_36detail10serializerINS0_10basic_jsonINSt3__13mapENS4_6vectorENS4_12basic_stringIcNS4_11char_traitsIcEENS4_9allocatorIcEEEEbxydSA_NS0_14adl_serializerENS6_IhNSA_IhEEEEvEEE4dumpERKSG_bbjj, symObjAddr: 0x10C94, symBinAddr: 0x1000144F0, symSize: 0xD80 }
  - { offsetInCU: 0x37A2C, offset: 0xDF2B6, size: 0x8, addend: 0x0, symName: __ZN8nlohmann16json_abi_v3_11_36detail10serializerINS0_10basic_jsonINSt3__13mapENS4_6vectorENS4_12basic_stringIcNS4_11char_traitsIcEENS4_9allocatorIcEEEEbxydSA_NS0_14adl_serializerENS6_IhNSA_IhEEEEvEEED1Ev, symObjAddr: 0x11A14, symBinAddr: 0x100015270, symSize: 0x78 }
  - { offsetInCU: 0x37A38, offset: 0xDF2C2, size: 0x8, addend: 0x0, symName: __ZN8nlohmann16json_abi_v3_11_36detail10serializerINS0_10basic_jsonINSt3__13mapENS4_6vectorENS4_12basic_stringIcNS4_11char_traitsIcEENS4_9allocatorIcEEEEbxydSA_NS0_14adl_serializerENS6_IhNSA_IhEEEEvEEED1Ev, symObjAddr: 0x11A14, symBinAddr: 0x100015270, symSize: 0x78 }
  - { offsetInCU: 0x37C1E, offset: 0xDF4A8, size: 0x8, addend: 0x0, symName: __ZNK8nlohmann16json_abi_v3_11_310basic_jsonINSt3__13mapENS2_6vectorENS2_12basic_stringIcNS2_11char_traitsIcEENS2_9allocatorIcEEEEbxydS8_NS0_14adl_serializerENS4_IhNS8_IhEEEEvE4dumpEicbNS0_6detail15error_handler_tE.cold.1, symObjAddr: 0x13288, symBinAddr: 0x100018450, symSize: 0x2C }
  - { offsetInCU: 0x37CBA, offset: 0xDF544, size: 0x8, addend: 0x0, symName: __ZNSt3__110shared_ptrIN8nlohmann16json_abi_v3_11_36detail23output_adapter_protocolIcEEED1B8ue170006Ev, symObjAddr: 0x10BD4, symBinAddr: 0x100014430, symSize: 0x60 }
  - { offsetInCU: 0x37D4F, offset: 0xDF5D9, size: 0x8, addend: 0x0, symName: __ZN8nlohmann16json_abi_v3_11_36detail14output_adapterIcNSt3__112basic_stringIcNS3_11char_traitsIcEENS3_9allocatorIcEEEEED1Ev, symObjAddr: 0x10C34, symBinAddr: 0x100014490, symSize: 0x60 }
  - { offsetInCU: 0x39E43, offset: 0xE16CD, size: 0x8, addend: 0x0, symName: __ZNKSt3__121__murmur2_or_cityhashImLm64EEclB8ue170006EPKvm, symObjAddr: 0x38E0, symBinAddr: 0x1000126B4, symSize: 0x49C }
  - { offsetInCU: 0x3AEB9, offset: 0xE2743, size: 0x8, addend: 0x0, symName: __ZNSt3__112__hash_tableINS_17__hash_value_typeINS_12basic_stringIcNS_11char_traitsIcEENS_9allocatorIcEEEENS_4pairINS_6chrono10time_pointINS9_12system_clockENS9_8durationIxNS_5ratioILl1ELl1000000EEEEEEES7_EEEENS_22__unordered_map_hasherIS7_SI_NS_4hashIS7_EENS_8equal_toIS7_EELb1EEENS_21__unordered_map_equalIS7_SI_SN_SL_Lb1EEENS5_ISI_EEE11__do_rehashILb1EEEvm, symObjAddr: 0x427C, symBinAddr: 0x100013050, symSize: 0x1AC }
  - { offsetInCU: 0x3B31F, offset: 0xE2BA9, size: 0x8, addend: 0x0, symName: __ZNSt3__110unique_ptrINS_11__hash_nodeINS_17__hash_value_typeINS_12basic_stringIcNS_11char_traitsIcEENS_9allocatorIcEEEENS_4pairINS_6chrono10time_pointINSA_12system_clockENSA_8durationIxNS_5ratioILl1ELl1000000EEEEEEES8_EEEEPvEENS_22__hash_node_destructorINS6_ISL_EEEEED1B8ue170006Ev, symObjAddr: 0x4214, symBinAddr: 0x100012FE8, symSize: 0x68 }
  - { offsetInCU: 0x43EC8, offset: 0xEB752, size: 0x8, addend: 0x0, symName: __ZN8nlohmann16json_abi_v3_11_36detail5lexerINS0_10basic_jsonINSt3__13mapENS4_6vectorENS4_12basic_stringIcNS4_11char_traitsIcEENS4_9allocatorIcEEEEbxydSA_NS0_14adl_serializerENS6_IhNSA_IhEEEEvEENS1_22iterator_input_adapterINS4_11__wrap_iterIPKcEEEEE4scanEv.cold.1, symObjAddr: 0x132B4, symBinAddr: 0x10001847C, symSize: 0x24 }
  - { offsetInCU: 0x44292, offset: 0xEBB1C, size: 0x8, addend: 0x0, symName: __ZN8nlohmann16json_abi_v3_11_36detail5lexerINS0_10basic_jsonINSt3__13mapENS4_6vectorENS4_12basic_stringIcNS4_11char_traitsIcEENS4_9allocatorIcEEEEbxydSA_NS0_14adl_serializerENS6_IhNSA_IhEEEEvEENS1_22iterator_input_adapterINS4_11__wrap_iterIPKcEEEEE12scan_commentEv.cold.1, symObjAddr: 0x132D8, symBinAddr: 0x1000184A0, symSize: 0x24 }
  - { offsetInCU: 0x445F9, offset: 0xEBE83, size: 0x8, addend: 0x0, symName: __ZN8nlohmann16json_abi_v3_11_36detail5lexerINS0_10basic_jsonINSt3__13mapENS4_6vectorENS4_12basic_stringIcNS4_11char_traitsIcEENS4_9allocatorIcEEEEbxydSA_NS0_14adl_serializerENS6_IhNSA_IhEEEEvEENS1_22iterator_input_adapterINS4_11__wrap_iterIPKcEEEEE11scan_stringEv.cold.2, symObjAddr: 0x13324, symBinAddr: 0x1000184EC, symSize: 0x28 }
  - { offsetInCU: 0x44611, offset: 0xEBE9B, size: 0x8, addend: 0x0, symName: __ZN8nlohmann16json_abi_v3_11_36detail5lexerINS0_10basic_jsonINSt3__13mapENS4_6vectorENS4_12basic_stringIcNS4_11char_traitsIcEENS4_9allocatorIcEEEEbxydSA_NS0_14adl_serializerENS6_IhNSA_IhEEEEvEENS1_22iterator_input_adapterINS4_11__wrap_iterIPKcEEEEE11scan_stringEv.cold.1, symObjAddr: 0x132FC, symBinAddr: 0x1000184C4, symSize: 0x28 }
  - { offsetInCU: 0x4466B, offset: 0xEBEF5, size: 0x8, addend: 0x0, symName: __ZN8nlohmann16json_abi_v3_11_36detail5lexerINS0_10basic_jsonINSt3__13mapENS4_6vectorENS4_12basic_stringIcNS4_11char_traitsIcEENS4_9allocatorIcEEEEbxydSA_NS0_14adl_serializerENS6_IhNSA_IhEEEEvEENS1_22iterator_input_adapterINS4_11__wrap_iterIPKcEEEEE11scan_numberEv.cold.2, symObjAddr: 0x13374, symBinAddr: 0x10001853C, symSize: 0x28 }
  - { offsetInCU: 0x44683, offset: 0xEBF0D, size: 0x8, addend: 0x0, symName: __ZN8nlohmann16json_abi_v3_11_36detail5lexerINS0_10basic_jsonINSt3__13mapENS4_6vectorENS4_12basic_stringIcNS4_11char_traitsIcEENS4_9allocatorIcEEEEbxydSA_NS0_14adl_serializerENS6_IhNSA_IhEEEEvEENS1_22iterator_input_adapterINS4_11__wrap_iterIPKcEEEEE11scan_numberEv.cold.3, symObjAddr: 0x1339C, symBinAddr: 0x100018564, symSize: 0x28 }
  - { offsetInCU: 0x4469B, offset: 0xEBF25, size: 0x8, addend: 0x0, symName: __ZN8nlohmann16json_abi_v3_11_36detail5lexerINS0_10basic_jsonINSt3__13mapENS4_6vectorENS4_12basic_stringIcNS4_11char_traitsIcEENS4_9allocatorIcEEEEbxydSA_NS0_14adl_serializerENS6_IhNSA_IhEEEEvEENS1_22iterator_input_adapterINS4_11__wrap_iterIPKcEEEEE11scan_numberEv.cold.4, symObjAddr: 0x133C4, symBinAddr: 0x10001858C, symSize: 0x28 }
  - { offsetInCU: 0x446B3, offset: 0xEBF3D, size: 0x8, addend: 0x0, symName: __ZN8nlohmann16json_abi_v3_11_36detail5lexerINS0_10basic_jsonINSt3__13mapENS4_6vectorENS4_12basic_stringIcNS4_11char_traitsIcEENS4_9allocatorIcEEEEbxydSA_NS0_14adl_serializerENS6_IhNSA_IhEEEEvEENS1_22iterator_input_adapterINS4_11__wrap_iterIPKcEEEEE11scan_numberEv.cold.5, symObjAddr: 0x133EC, symBinAddr: 0x1000185B4, symSize: 0x24 }
  - { offsetInCU: 0x446E1, offset: 0xEBF6B, size: 0x8, addend: 0x0, symName: __ZN8nlohmann16json_abi_v3_11_36detail5lexerINS0_10basic_jsonINSt3__13mapENS4_6vectorENS4_12basic_stringIcNS4_11char_traitsIcEENS4_9allocatorIcEEEEbxydSA_NS0_14adl_serializerENS6_IhNSA_IhEEEEvEENS1_22iterator_input_adapterINS4_11__wrap_iterIPKcEEEEE11scan_numberEv.cold.1, symObjAddr: 0x1334C, symBinAddr: 0x100018514, symSize: 0x28 }
  - { offsetInCU: 0x446F9, offset: 0xEBF83, size: 0x8, addend: 0x0, symName: __ZN8nlohmann16json_abi_v3_11_36detail5lexerINS0_10basic_jsonINSt3__13mapENS4_6vectorENS4_12basic_stringIcNS4_11char_traitsIcEENS4_9allocatorIcEEEEbxydSA_NS0_14adl_serializerENS6_IhNSA_IhEEEEvEENS1_22iterator_input_adapterINS4_11__wrap_iterIPKcEEEEE13get_codepointEv.cold.1, symObjAddr: 0x13410, symBinAddr: 0x1000185D8, symSize: 0x28 }
  - { offsetInCU: 0x4C34A, offset: 0xF3BD4, size: 0x8, addend: 0x0, symName: __ZN8nlohmann16json_abi_v3_11_36detail28json_sax_dom_callback_parserINS0_10basic_jsonINSt3__13mapENS4_6vectorENS4_12basic_stringIcNS4_11char_traitsIcEENS4_9allocatorIcEEEEbxydSA_NS0_14adl_serializerENS6_IhNSA_IhEEEEvEEE10end_objectEv.cold.3, symObjAddr: 0x13488, symBinAddr: 0x100018650, symSize: 0x28 }
  - { offsetInCU: 0x4C378, offset: 0xF3C02, size: 0x8, addend: 0x0, symName: __ZN8nlohmann16json_abi_v3_11_36detail28json_sax_dom_callback_parserINS0_10basic_jsonINSt3__13mapENS4_6vectorENS4_12basic_stringIcNS4_11char_traitsIcEENS4_9allocatorIcEEEEbxydSA_NS0_14adl_serializerENS6_IhNSA_IhEEEEvEEE10end_objectEv.cold.1, symObjAddr: 0x13438, symBinAddr: 0x100018600, symSize: 0x28 }
  - { offsetInCU: 0x4C390, offset: 0xF3C1A, size: 0x8, addend: 0x0, symName: __ZN8nlohmann16json_abi_v3_11_36detail28json_sax_dom_callback_parserINS0_10basic_jsonINSt3__13mapENS4_6vectorENS4_12basic_stringIcNS4_11char_traitsIcEENS4_9allocatorIcEEEEbxydSA_NS0_14adl_serializerENS6_IhNSA_IhEEEEvEEE10end_objectEv.cold.2, symObjAddr: 0x13460, symBinAddr: 0x100018628, symSize: 0x28 }
  - { offsetInCU: 0x4C4CE, offset: 0xF3D58, size: 0x8, addend: 0x0, symName: __ZN8nlohmann16json_abi_v3_11_36detail28json_sax_dom_callback_parserINS0_10basic_jsonINSt3__13mapENS4_6vectorENS4_12basic_stringIcNS4_11char_traitsIcEENS4_9allocatorIcEEEEbxydSA_NS0_14adl_serializerENS6_IhNSA_IhEEEEvEEE9end_arrayEv.cold.1, symObjAddr: 0x134B0, symBinAddr: 0x100018678, symSize: 0x28 }
  - { offsetInCU: 0x4C4E6, offset: 0xF3D70, size: 0x8, addend: 0x0, symName: __ZN8nlohmann16json_abi_v3_11_36detail28json_sax_dom_callback_parserINS0_10basic_jsonINSt3__13mapENS4_6vectorENS4_12basic_stringIcNS4_11char_traitsIcEENS4_9allocatorIcEEEEbxydSA_NS0_14adl_serializerENS6_IhNSA_IhEEEEvEEE9end_arrayEv.cold.2, symObjAddr: 0x134D8, symBinAddr: 0x1000186A0, symSize: 0x28 }
  - { offsetInCU: 0x4C90E, offset: 0xF4198, size: 0x8, addend: 0x0, symName: __ZN8nlohmann16json_abi_v3_11_36detail28json_sax_dom_callback_parserINS0_10basic_jsonINSt3__13mapENS4_6vectorENS4_12basic_stringIcNS4_11char_traitsIcEENS4_9allocatorIcEEEEbxydSA_NS0_14adl_serializerENS6_IhNSA_IhEEEEvEEE12handle_valueINS1_7value_tEEENS4_4pairIbPSG_EEOT_b.cold.1, symObjAddr: 0x13500, symBinAddr: 0x1000186C8, symSize: 0x24 }
  - { offsetInCU: 0x4CAE0, offset: 0xF436A, size: 0x8, addend: 0x0, symName: __ZNK8nlohmann16json_abi_v3_11_36detail9iter_implINS0_10basic_jsonINSt3__13mapENS4_6vectorENS4_12basic_stringIcNS4_11char_traitsIcEENS4_9allocatorIcEEEEbxydSA_NS0_14adl_serializerENS6_IhNSA_IhEEEEvEEEptEv.cold.3, symObjAddr: 0x13574, symBinAddr: 0x10001873C, symSize: 0x28 }
  - { offsetInCU: 0x4CAF8, offset: 0xF4382, size: 0x8, addend: 0x0, symName: __ZNK8nlohmann16json_abi_v3_11_36detail9iter_implINS0_10basic_jsonINSt3__13mapENS4_6vectorENS4_12basic_stringIcNS4_11char_traitsIcEENS4_9allocatorIcEEEEbxydSA_NS0_14adl_serializerENS6_IhNSA_IhEEEEvEEEptEv.cold.1, symObjAddr: 0x13524, symBinAddr: 0x1000186EC, symSize: 0x28 }
  - { offsetInCU: 0x4CB10, offset: 0xF439A, size: 0x8, addend: 0x0, symName: __ZNK8nlohmann16json_abi_v3_11_36detail9iter_implINS0_10basic_jsonINSt3__13mapENS4_6vectorENS4_12basic_stringIcNS4_11char_traitsIcEENS4_9allocatorIcEEEEbxydSA_NS0_14adl_serializerENS6_IhNSA_IhEEEEvEEEptEv.cold.2, symObjAddr: 0x1354C, symBinAddr: 0x100018714, symSize: 0x28 }
  - { offsetInCU: 0x4D583, offset: 0xF4E0D, size: 0x8, addend: 0x0, symName: __ZNK8nlohmann16json_abi_v3_11_36detail9iter_implINS0_10basic_jsonINSt3__13mapENS4_6vectorENS4_12basic_stringIcNS4_11char_traitsIcEENS4_9allocatorIcEEEEbxydSA_NS0_14adl_serializerENS6_IhNSA_IhEEEEvEEEeqISH_LDn0EEEbRKT_.cold.1, symObjAddr: 0x1359C, symBinAddr: 0x100018764, symSize: 0x28 }
  - { offsetInCU: 0x4E3AB, offset: 0xF5C35, size: 0x8, addend: 0x0, symName: __ZN8nlohmann16json_abi_v3_11_36detail28json_sax_dom_callback_parserINS0_10basic_jsonINSt3__13mapENS4_6vectorENS4_12basic_stringIcNS4_11char_traitsIcEENS4_9allocatorIcEEEEbxydSA_NS0_14adl_serializerENS6_IhNSA_IhEEEEvEEE12handle_valueIRdEENS4_4pairIbPSG_EEOT_b.cold.1, symObjAddr: 0x135C4, symBinAddr: 0x10001878C, symSize: 0x24 }
  - { offsetInCU: 0x4E4DA, offset: 0xF5D64, size: 0x8, addend: 0x0, symName: __ZN8nlohmann16json_abi_v3_11_36detail28json_sax_dom_callback_parserINS0_10basic_jsonINSt3__13mapENS4_6vectorENS4_12basic_stringIcNS4_11char_traitsIcEENS4_9allocatorIcEEEEbxydSA_NS0_14adl_serializerENS6_IhNSA_IhEEEEvEEE12handle_valueIRbEENS4_4pairIbPSG_EEOT_b.cold.1, symObjAddr: 0x135E8, symBinAddr: 0x1000187B0, symSize: 0x24 }
  - { offsetInCU: 0x4E4F2, offset: 0xF5D7C, size: 0x8, addend: 0x0, symName: __ZN8nlohmann16json_abi_v3_11_36detail28json_sax_dom_callback_parserINS0_10basic_jsonINSt3__13mapENS4_6vectorENS4_12basic_stringIcNS4_11char_traitsIcEENS4_9allocatorIcEEEEbxydSA_NS0_14adl_serializerENS6_IhNSA_IhEEEEvEEE12handle_valueIDnEENS4_4pairIbPSG_EEOT_b.cold.1, symObjAddr: 0x1360C, symBinAddr: 0x1000187D4, symSize: 0x24 }
  - { offsetInCU: 0x4E621, offset: 0xF5EAB, size: 0x8, addend: 0x0, symName: __ZN8nlohmann16json_abi_v3_11_36detail28json_sax_dom_callback_parserINS0_10basic_jsonINSt3__13mapENS4_6vectorENS4_12basic_stringIcNS4_11char_traitsIcEENS4_9allocatorIcEEEEbxydSA_NS0_14adl_serializerENS6_IhNSA_IhEEEEvEEE12handle_valueIRxEENS4_4pairIbPSG_EEOT_b.cold.1, symObjAddr: 0x13630, symBinAddr: 0x1000187F8, symSize: 0x24 }
  - { offsetInCU: 0x4E639, offset: 0xF5EC3, size: 0x8, addend: 0x0, symName: __ZN8nlohmann16json_abi_v3_11_36detail28json_sax_dom_callback_parserINS0_10basic_jsonINSt3__13mapENS4_6vectorENS4_12basic_stringIcNS4_11char_traitsIcEENS4_9allocatorIcEEEEbxydSA_NS0_14adl_serializerENS6_IhNSA_IhEEEEvEEE12handle_valueIRSC_EENS4_4pairIbPSG_EEOT_b.cold.1, symObjAddr: 0x13654, symBinAddr: 0x10001881C, symSize: 0x24 }
  - { offsetInCU: 0x4E768, offset: 0xF5FF2, size: 0x8, addend: 0x0, symName: __ZN8nlohmann16json_abi_v3_11_36detail28json_sax_dom_callback_parserINS0_10basic_jsonINSt3__13mapENS4_6vectorENS4_12basic_stringIcNS4_11char_traitsIcEENS4_9allocatorIcEEEEbxydSA_NS0_14adl_serializerENS6_IhNSA_IhEEEEvEEE12handle_valueIRyEENS4_4pairIbPSG_EEOT_b.cold.1, symObjAddr: 0x13678, symBinAddr: 0x100018840, symSize: 0x24 }
  - { offsetInCU: 0x4F5E5, offset: 0xF6E6F, size: 0x8, addend: 0x0, symName: __ZN8nlohmann16json_abi_v3_11_36detail19json_sax_dom_parserINS0_10basic_jsonINSt3__13mapENS4_6vectorENS4_12basic_stringIcNS4_11char_traitsIcEENS4_9allocatorIcEEEEbxydSA_NS0_14adl_serializerENS6_IhNSA_IhEEEEvEEE12handle_valueINS1_7value_tEEEPSG_OT_.cold.1, symObjAddr: 0x1369C, symBinAddr: 0x100018864, symSize: 0x24 }
  - { offsetInCU: 0x4F5FD, offset: 0xF6E87, size: 0x8, addend: 0x0, symName: __ZN8nlohmann16json_abi_v3_11_36detail19json_sax_dom_parserINS0_10basic_jsonINSt3__13mapENS4_6vectorENS4_12basic_stringIcNS4_11char_traitsIcEENS4_9allocatorIcEEEEbxydSA_NS0_14adl_serializerENS6_IhNSA_IhEEEEvEEE12handle_valueINS1_7value_tEEEPSG_OT_.cold.2, symObjAddr: 0x136C0, symBinAddr: 0x100018888, symSize: 0x24 }
  - { offsetInCU: 0x4FB16, offset: 0xF73A0, size: 0x8, addend: 0x0, symName: __ZN8nlohmann16json_abi_v3_11_36detail19json_sax_dom_parserINS0_10basic_jsonINSt3__13mapENS4_6vectorENS4_12basic_stringIcNS4_11char_traitsIcEENS4_9allocatorIcEEEEbxydSA_NS0_14adl_serializerENS6_IhNSA_IhEEEEvEEE12handle_valueIRdEEPSG_OT_.cold.1, symObjAddr: 0x136E4, symBinAddr: 0x1000188AC, symSize: 0x24 }
  - { offsetInCU: 0x4FB2E, offset: 0xF73B8, size: 0x8, addend: 0x0, symName: __ZN8nlohmann16json_abi_v3_11_36detail19json_sax_dom_parserINS0_10basic_jsonINSt3__13mapENS4_6vectorENS4_12basic_stringIcNS4_11char_traitsIcEENS4_9allocatorIcEEEEbxydSA_NS0_14adl_serializerENS6_IhNSA_IhEEEEvEEE12handle_valueIRdEEPSG_OT_.cold.2, symObjAddr: 0x13708, symBinAddr: 0x1000188D0, symSize: 0x24 }
  - { offsetInCU: 0x4FF98, offset: 0xF7822, size: 0x8, addend: 0x0, symName: __ZN8nlohmann16json_abi_v3_11_36detail19json_sax_dom_parserINS0_10basic_jsonINSt3__13mapENS4_6vectorENS4_12basic_stringIcNS4_11char_traitsIcEENS4_9allocatorIcEEEEbxydSA_NS0_14adl_serializerENS6_IhNSA_IhEEEEvEEE12handle_valueIRbEEPSG_OT_.cold.1, symObjAddr: 0x1372C, symBinAddr: 0x1000188F4, symSize: 0x24 }
  - { offsetInCU: 0x4FFB0, offset: 0xF783A, size: 0x8, addend: 0x0, symName: __ZN8nlohmann16json_abi_v3_11_36detail19json_sax_dom_parserINS0_10basic_jsonINSt3__13mapENS4_6vectorENS4_12basic_stringIcNS4_11char_traitsIcEENS4_9allocatorIcEEEEbxydSA_NS0_14adl_serializerENS6_IhNSA_IhEEEEvEEE12handle_valueIRbEEPSG_OT_.cold.2, symObjAddr: 0x13750, symBinAddr: 0x100018918, symSize: 0x24 }
  - { offsetInCU: 0x50463, offset: 0xF7CED, size: 0x8, addend: 0x0, symName: __ZN8nlohmann16json_abi_v3_11_36detail19json_sax_dom_parserINS0_10basic_jsonINSt3__13mapENS4_6vectorENS4_12basic_stringIcNS4_11char_traitsIcEENS4_9allocatorIcEEEEbxydSA_NS0_14adl_serializerENS6_IhNSA_IhEEEEvEEE12handle_valueIDnEEPSG_OT_.cold.1, symObjAddr: 0x13774, symBinAddr: 0x10001893C, symSize: 0x24 }
  - { offsetInCU: 0x5047B, offset: 0xF7D05, size: 0x8, addend: 0x0, symName: __ZN8nlohmann16json_abi_v3_11_36detail19json_sax_dom_parserINS0_10basic_jsonINSt3__13mapENS4_6vectorENS4_12basic_stringIcNS4_11char_traitsIcEENS4_9allocatorIcEEEEbxydSA_NS0_14adl_serializerENS6_IhNSA_IhEEEEvEEE12handle_valueIDnEEPSG_OT_.cold.2, symObjAddr: 0x13798, symBinAddr: 0x100018960, symSize: 0x24 }
  - { offsetInCU: 0x509B0, offset: 0xF823A, size: 0x8, addend: 0x0, symName: __ZN8nlohmann16json_abi_v3_11_36detail19json_sax_dom_parserINS0_10basic_jsonINSt3__13mapENS4_6vectorENS4_12basic_stringIcNS4_11char_traitsIcEENS4_9allocatorIcEEEEbxydSA_NS0_14adl_serializerENS6_IhNSA_IhEEEEvEEE12handle_valueIRxEEPSG_OT_.cold.1, symObjAddr: 0x137BC, symBinAddr: 0x100018984, symSize: 0x24 }
  - { offsetInCU: 0x509C8, offset: 0xF8252, size: 0x8, addend: 0x0, symName: __ZN8nlohmann16json_abi_v3_11_36detail19json_sax_dom_parserINS0_10basic_jsonINSt3__13mapENS4_6vectorENS4_12basic_stringIcNS4_11char_traitsIcEENS4_9allocatorIcEEEEbxydSA_NS0_14adl_serializerENS6_IhNSA_IhEEEEvEEE12handle_valueIRxEEPSG_OT_.cold.2, symObjAddr: 0x137E0, symBinAddr: 0x1000189A8, symSize: 0x24 }
  - { offsetInCU: 0x50DEC, offset: 0xF8676, size: 0x8, addend: 0x0, symName: __ZN8nlohmann16json_abi_v3_11_36detail19json_sax_dom_parserINS0_10basic_jsonINSt3__13mapENS4_6vectorENS4_12basic_stringIcNS4_11char_traitsIcEENS4_9allocatorIcEEEEbxydSA_NS0_14adl_serializerENS6_IhNSA_IhEEEEvEEE12handle_valueIRSC_EEPSG_OT_.cold.1, symObjAddr: 0x13804, symBinAddr: 0x1000189CC, symSize: 0x24 }
  - { offsetInCU: 0x50E04, offset: 0xF868E, size: 0x8, addend: 0x0, symName: __ZN8nlohmann16json_abi_v3_11_36detail19json_sax_dom_parserINS0_10basic_jsonINSt3__13mapENS4_6vectorENS4_12basic_stringIcNS4_11char_traitsIcEENS4_9allocatorIcEEEEbxydSA_NS0_14adl_serializerENS6_IhNSA_IhEEEEvEEE12handle_valueIRSC_EEPSG_OT_.cold.2, symObjAddr: 0x13828, symBinAddr: 0x1000189F0, symSize: 0x24 }
  - { offsetInCU: 0x5127A, offset: 0xF8B04, size: 0x8, addend: 0x0, symName: __ZN8nlohmann16json_abi_v3_11_36detail19json_sax_dom_parserINS0_10basic_jsonINSt3__13mapENS4_6vectorENS4_12basic_stringIcNS4_11char_traitsIcEENS4_9allocatorIcEEEEbxydSA_NS0_14adl_serializerENS6_IhNSA_IhEEEEvEEE12handle_valueIRyEEPSG_OT_.cold.1, symObjAddr: 0x1384C, symBinAddr: 0x100018A14, symSize: 0x24 }
  - { offsetInCU: 0x51292, offset: 0xF8B1C, size: 0x8, addend: 0x0, symName: __ZN8nlohmann16json_abi_v3_11_36detail19json_sax_dom_parserINS0_10basic_jsonINSt3__13mapENS4_6vectorENS4_12basic_stringIcNS4_11char_traitsIcEENS4_9allocatorIcEEEEbxydSA_NS0_14adl_serializerENS6_IhNSA_IhEEEEvEEE12handle_valueIRyEEPSG_OT_.cold.2, symObjAddr: 0x13870, symBinAddr: 0x100018A38, symSize: 0x24 }
  - { offsetInCU: 0x52593, offset: 0xF9E1D, size: 0x8, addend: 0x0, symName: __ZN8nlohmann16json_abi_v3_11_310basic_jsonINSt3__13mapENS2_6vectorENS2_12basic_stringIcNS2_11char_traitsIcEENS2_9allocatorIcEEEEbxydS8_NS0_14adl_serializerENS4_IhNS8_IhEEEEvEC2IRA16_KcA16_cLi0EEEOT_, symObjAddr: 0xF9A0, symBinAddr: 0x1000131FC, symSize: 0xDC }
  - { offsetInCU: 0x53B03, offset: 0xFB38D, size: 0x8, addend: 0x0, symName: __ZN8nlohmann16json_abi_v3_11_36detail20external_constructorILNS1_7value_tE3EE9constructINS0_10basic_jsonINSt3__13mapENS7_6vectorENS7_12basic_stringIcNS7_11char_traitsIcEENS7_9allocatorIcEEEEbxydSD_NS0_14adl_serializerENS9_IhNSD_IhEEEEvEEA16_cLi0EEEvRT_RKT0_, symObjAddr: 0xFA7C, symBinAddr: 0x1000132D8, symSize: 0xDC }
  - { offsetInCU: 0x54378, offset: 0xFBC02, size: 0x8, addend: 0x0, symName: __ZN8nlohmann16json_abi_v3_11_36detail20external_constructorILNS1_7value_tE3EE9constructINS0_10basic_jsonINSt3__13mapENS7_6vectorENS7_12basic_stringIcNS7_11char_traitsIcEENS7_9allocatorIcEEEEbxydSD_NS0_14adl_serializerENS9_IhNSD_IhEEEEvEEA11_cLi0EEEvRT_RKT0_, symObjAddr: 0xFD10, symBinAddr: 0x10001356C, symSize: 0xDC }
  - { offsetInCU: 0x54B7B, offset: 0xFC405, size: 0x8, addend: 0x0, symName: __ZN8nlohmann16json_abi_v3_11_36detail20external_constructorILNS1_7value_tE3EE9constructINS0_10basic_jsonINSt3__13mapENS7_6vectorENS7_12basic_stringIcNS7_11char_traitsIcEENS7_9allocatorIcEEEEbxydSD_NS0_14adl_serializerENS9_IhNSD_IhEEEEvEEA5_cLi0EEEvRT_RKT0_, symObjAddr: 0xFEC8, symBinAddr: 0x100013724, symSize: 0xDC }
  - { offsetInCU: 0x5537E, offset: 0xFCC08, size: 0x8, addend: 0x0, symName: __ZN8nlohmann16json_abi_v3_11_36detail20external_constructorILNS1_7value_tE3EE9constructINS0_10basic_jsonINSt3__13mapENS7_6vectorENS7_12basic_stringIcNS7_11char_traitsIcEENS7_9allocatorIcEEEEbxydSD_NS0_14adl_serializerENS9_IhNSD_IhEEEEvEEA20_cLi0EEEvRT_RKT0_, symObjAddr: 0x10080, symBinAddr: 0x1000138DC, symSize: 0xDC }
  - { offsetInCU: 0x55B81, offset: 0xFD40B, size: 0x8, addend: 0x0, symName: __ZN8nlohmann16json_abi_v3_11_36detail20external_constructorILNS1_7value_tE3EE9constructINS0_10basic_jsonINSt3__13mapENS7_6vectorENS7_12basic_stringIcNS7_11char_traitsIcEENS7_9allocatorIcEEEEbxydSD_NS0_14adl_serializerENS9_IhNSD_IhEEEEvEEA18_cLi0EEEvRT_RKT0_, symObjAddr: 0x10238, symBinAddr: 0x100013A94, symSize: 0xDC }
  - { offsetInCU: 0x56698, offset: 0xFDF22, size: 0x8, addend: 0x0, symName: __ZNK8nlohmann16json_abi_v3_11_310basic_jsonINSt3__13mapENS2_6vectorENS2_12basic_stringIcNS2_11char_traitsIcEENS2_9allocatorIcEEEEbxydS8_NS0_14adl_serializerENS4_IhNS8_IhEEEEvEixEm, symObjAddr: 0x107E0, symBinAddr: 0x10001403C, symSize: 0xE0 }
  - { offsetInCU: 0x5688B, offset: 0xFE115, size: 0x8, addend: 0x0, symName: __ZNSt3__16__treeINS_12__value_typeINS_12basic_stringIcNS_11char_traitsIcEENS_9allocatorIcEEEEN8nlohmann16json_abi_v3_11_310basic_jsonINS_3mapENS_6vectorES7_bxydS5_NS9_14adl_serializerENSC_IhNS5_IhEEEEvEEEENS_19__map_value_compareIS7_SH_NS_4lessIvEELb1EEENS5_ISH_EEE25__emplace_unique_key_argsIS7_JS7_SG_EEENS_4pairINS_15__tree_iteratorISH_PNS_11__tree_nodeISH_PvEElEEbEERKT_DpOT0_, symObjAddr: 0x108C0, symBinAddr: 0x10001411C, symSize: 0x178 }
  - { offsetInCU: 0x56E3A, offset: 0xFE6C4, size: 0x8, addend: 0x0, symName: __ZNSt3__16vectorIN8nlohmann16json_abi_v3_11_310basic_jsonINS_3mapES0_NS_12basic_stringIcNS_11char_traitsIcEENS_9allocatorIcEEEEbxydS8_NS2_14adl_serializerENS0_IhNS8_IhEEEEvEENS8_ISE_EEEC2IPKNS2_6detail8json_refISE_EELi0EEET_SN_, symObjAddr: 0x10A38, symBinAddr: 0x100014294, symSize: 0xCC }
  - { offsetInCU: 0x57112, offset: 0xFE99C, size: 0x8, addend: 0x0, symName: __ZN8nlohmann16json_abi_v3_11_36detail10type_error6createIDnLi0EEES2_iRKNSt3__112basic_stringIcNS4_11char_traitsIcEENS4_9allocatorIcEEEET_, symObjAddr: 0x1060C, symBinAddr: 0x100013E68, symSize: 0x1D4 }
  - { offsetInCU: 0x580C3, offset: 0xFF94D, size: 0x8, addend: 0x0, symName: __ZNSt3__16vectorIN8nlohmann16json_abi_v3_11_310basic_jsonINS_3mapES0_NS_12basic_stringIcNS_11char_traitsIcEENS_9allocatorIcEEEEbxydS8_NS2_14adl_serializerENS0_IhNS8_IhEEEEvEENS8_ISE_EEEC2IPKNS2_6detail8json_refISE_EELi0EEET_SN_.cold.1, symObjAddr: 0x13894, symBinAddr: 0x100018A5C, symSize: 0x58 }
  - { offsetInCU: 0x586C6, offset: 0xFFF50, size: 0x8, addend: 0x0, symName: __ZN8nlohmann16json_abi_v3_11_36detail10serializerINS0_10basic_jsonINSt3__13mapENS4_6vectorENS4_12basic_stringIcNS4_11char_traitsIcEENS4_9allocatorIcEEEEbxydSA_NS0_14adl_serializerENS6_IhNSA_IhEEEEvEEE12dump_escapedERKSC_b, symObjAddr: 0x11AEC, symBinAddr: 0x100015348, symSize: 0x590 }
  - { offsetInCU: 0x59144, offset: 0x1009CE, size: 0x8, addend: 0x0, symName: __ZN8nlohmann16json_abi_v3_11_36detail10serializerINS0_10basic_jsonINSt3__13mapENS4_6vectorENS4_12basic_stringIcNS4_11char_traitsIcEENS4_9allocatorIcEEEEbxydSA_NS0_14adl_serializerENS6_IhNSA_IhEEEEvEEE4dumpERKSG_bbjj.cold.2, symObjAddr: 0x13914, symBinAddr: 0x100018ADC, symSize: 0x28 }
  - { offsetInCU: 0x5915C, offset: 0x1009E6, size: 0x8, addend: 0x0, symName: __ZN8nlohmann16json_abi_v3_11_36detail10serializerINS0_10basic_jsonINSt3__13mapENS4_6vectorENS4_12basic_stringIcNS4_11char_traitsIcEENS4_9allocatorIcEEEEbxydSA_NS0_14adl_serializerENS6_IhNSA_IhEEEEvEEE4dumpERKSG_bbjj.cold.4, symObjAddr: 0x13964, symBinAddr: 0x100018B2C, symSize: 0x28 }
  - { offsetInCU: 0x59174, offset: 0x1009FE, size: 0x8, addend: 0x0, symName: __ZN8nlohmann16json_abi_v3_11_36detail10serializerINS0_10basic_jsonINSt3__13mapENS4_6vectorENS4_12basic_stringIcNS4_11char_traitsIcEENS4_9allocatorIcEEEEbxydSA_NS0_14adl_serializerENS6_IhNSA_IhEEEEvEEE4dumpERKSG_bbjj.cold.6, symObjAddr: 0x139B4, symBinAddr: 0x100018B7C, symSize: 0x28 }
  - { offsetInCU: 0x5918C, offset: 0x100A16, size: 0x8, addend: 0x0, symName: __ZN8nlohmann16json_abi_v3_11_36detail10serializerINS0_10basic_jsonINSt3__13mapENS4_6vectorENS4_12basic_stringIcNS4_11char_traitsIcEENS4_9allocatorIcEEEEbxydSA_NS0_14adl_serializerENS6_IhNSA_IhEEEEvEEE4dumpERKSG_bbjj.cold.7, symObjAddr: 0x139DC, symBinAddr: 0x100018BA4, symSize: 0x28 }
  - { offsetInCU: 0x591A4, offset: 0x100A2E, size: 0x8, addend: 0x0, symName: __ZN8nlohmann16json_abi_v3_11_36detail10serializerINS0_10basic_jsonINSt3__13mapENS4_6vectorENS4_12basic_stringIcNS4_11char_traitsIcEENS4_9allocatorIcEEEEbxydSA_NS0_14adl_serializerENS6_IhNSA_IhEEEEvEEE4dumpERKSG_bbjj.cold.3, symObjAddr: 0x1393C, symBinAddr: 0x100018B04, symSize: 0x28 }
  - { offsetInCU: 0x591BC, offset: 0x100A46, size: 0x8, addend: 0x0, symName: __ZN8nlohmann16json_abi_v3_11_36detail10serializerINS0_10basic_jsonINSt3__13mapENS4_6vectorENS4_12basic_stringIcNS4_11char_traitsIcEENS4_9allocatorIcEEEEbxydSA_NS0_14adl_serializerENS6_IhNSA_IhEEEEvEEE4dumpERKSG_bbjj.cold.5, symObjAddr: 0x1398C, symBinAddr: 0x100018B54, symSize: 0x28 }
  - { offsetInCU: 0x591D4, offset: 0x100A5E, size: 0x8, addend: 0x0, symName: __ZN8nlohmann16json_abi_v3_11_36detail10serializerINS0_10basic_jsonINSt3__13mapENS4_6vectorENS4_12basic_stringIcNS4_11char_traitsIcEENS4_9allocatorIcEEEEbxydSA_NS0_14adl_serializerENS6_IhNSA_IhEEEEvEEE4dumpERKSG_bbjj.cold.1, symObjAddr: 0x138EC, symBinAddr: 0x100018AB4, symSize: 0x28 }
  - { offsetInCU: 0x59209, offset: 0x100A93, size: 0x8, addend: 0x0, symName: __ZNSt3__120__shared_ptr_emplaceIN8nlohmann16json_abi_v3_11_36detail21output_string_adapterIcNS_12basic_stringIcNS_11char_traitsIcEENS_9allocatorIcEEEEEENS8_ISB_EEED1Ev, symObjAddr: 0x11A8C, symBinAddr: 0x1000152E8, symSize: 0x14 }
  - { offsetInCU: 0x5922B, offset: 0x100AB5, size: 0x8, addend: 0x0, symName: __ZNSt3__120__shared_ptr_emplaceIN8nlohmann16json_abi_v3_11_36detail21output_string_adapterIcNS_12basic_stringIcNS_11char_traitsIcEENS_9allocatorIcEEEEEENS8_ISB_EEED1Ev, symObjAddr: 0x11A8C, symBinAddr: 0x1000152E8, symSize: 0x14 }
  - { offsetInCU: 0x59263, offset: 0x100AED, size: 0x8, addend: 0x0, symName: __ZNSt3__120__shared_ptr_emplaceIN8nlohmann16json_abi_v3_11_36detail21output_string_adapterIcNS_12basic_stringIcNS_11char_traitsIcEENS_9allocatorIcEEEEEENS8_ISB_EEED0Ev, symObjAddr: 0x11AA0, symBinAddr: 0x1000152FC, symSize: 0x24 }
  - { offsetInCU: 0x592F1, offset: 0x100B7B, size: 0x8, addend: 0x0, symName: __ZNSt3__120__shared_ptr_emplaceIN8nlohmann16json_abi_v3_11_36detail21output_string_adapterIcNS_12basic_stringIcNS_11char_traitsIcEENS_9allocatorIcEEEEEENS8_ISB_EEE16__on_zero_sharedEv, symObjAddr: 0x11AC4, symBinAddr: 0x100015320, symSize: 0xC }
  - { offsetInCU: 0x59316, offset: 0x100BA0, size: 0x8, addend: 0x0, symName: __ZNSt3__120__shared_ptr_emplaceIN8nlohmann16json_abi_v3_11_36detail21output_string_adapterIcNS_12basic_stringIcNS_11char_traitsIcEENS_9allocatorIcEEEEEENS8_ISB_EEE16__on_zero_sharedEv, symObjAddr: 0x11AC4, symBinAddr: 0x100015320, symSize: 0xC }
  - { offsetInCU: 0x59333, offset: 0x100BBD, size: 0x8, addend: 0x0, symName: __ZNSt3__120__shared_ptr_emplaceIN8nlohmann16json_abi_v3_11_36detail21output_string_adapterIcNS_12basic_stringIcNS_11char_traitsIcEENS_9allocatorIcEEEEEENS8_ISB_EEE16__on_zero_sharedEv, symObjAddr: 0x11AC4, symBinAddr: 0x100015320, symSize: 0xC }
  - { offsetInCU: 0x59351, offset: 0x100BDB, size: 0x8, addend: 0x0, symName: __ZNSt3__120__shared_ptr_emplaceIN8nlohmann16json_abi_v3_11_36detail21output_string_adapterIcNS_12basic_stringIcNS_11char_traitsIcEENS_9allocatorIcEEEEEENS8_ISB_EEE16__on_zero_sharedEv, symObjAddr: 0x11AC4, symBinAddr: 0x100015320, symSize: 0xC }
  - { offsetInCU: 0x5936F, offset: 0x100BF9, size: 0x8, addend: 0x0, symName: __ZNSt3__120__shared_ptr_emplaceIN8nlohmann16json_abi_v3_11_36detail21output_string_adapterIcNS_12basic_stringIcNS_11char_traitsIcEENS_9allocatorIcEEEEEENS8_ISB_EEE16__on_zero_sharedEv, symObjAddr: 0x11AC4, symBinAddr: 0x100015320, symSize: 0xC }
  - { offsetInCU: 0x593FE, offset: 0x100C88, size: 0x8, addend: 0x0, symName: __ZNSt3__120__shared_ptr_emplaceIN8nlohmann16json_abi_v3_11_36detail21output_string_adapterIcNS_12basic_stringIcNS_11char_traitsIcEENS_9allocatorIcEEEEEENS8_ISB_EEE21__on_zero_shared_weakEv, symObjAddr: 0x11AD0, symBinAddr: 0x10001532C, symSize: 0x4 }
  - { offsetInCU: 0x59431, offset: 0x100CBB, size: 0x8, addend: 0x0, symName: __ZNSt3__120__shared_ptr_emplaceIN8nlohmann16json_abi_v3_11_36detail21output_string_adapterIcNS_12basic_stringIcNS_11char_traitsIcEENS_9allocatorIcEEEEEENS8_ISB_EEE21__on_zero_shared_weakEv, symObjAddr: 0x11AD0, symBinAddr: 0x10001532C, symSize: 0x4 }
  - { offsetInCU: 0x59453, offset: 0x100CDD, size: 0x8, addend: 0x0, symName: __ZNSt3__120__shared_ptr_emplaceIN8nlohmann16json_abi_v3_11_36detail21output_string_adapterIcNS_12basic_stringIcNS_11char_traitsIcEENS_9allocatorIcEEEEEENS8_ISB_EEE21__on_zero_shared_weakEv, symObjAddr: 0x11AD0, symBinAddr: 0x10001532C, symSize: 0x4 }
  - { offsetInCU: 0x59475, offset: 0x100CFF, size: 0x8, addend: 0x0, symName: __ZNSt3__120__shared_ptr_emplaceIN8nlohmann16json_abi_v3_11_36detail21output_string_adapterIcNS_12basic_stringIcNS_11char_traitsIcEENS_9allocatorIcEEEEEENS8_ISB_EEE21__on_zero_shared_weakEv, symObjAddr: 0x11AD0, symBinAddr: 0x10001532C, symSize: 0x4 }
  - { offsetInCU: 0x594A1, offset: 0x100D2B, size: 0x8, addend: 0x0, symName: __ZNSt3__120__shared_ptr_emplaceIN8nlohmann16json_abi_v3_11_36detail21output_string_adapterIcNS_12basic_stringIcNS_11char_traitsIcEENS_9allocatorIcEEEEEENS8_ISB_EEE21__on_zero_shared_weakEv, symObjAddr: 0x11AD0, symBinAddr: 0x10001532C, symSize: 0x4 }
  - { offsetInCU: 0x594C8, offset: 0x100D52, size: 0x8, addend: 0x0, symName: __ZNSt3__120__shared_ptr_emplaceIN8nlohmann16json_abi_v3_11_36detail21output_string_adapterIcNS_12basic_stringIcNS_11char_traitsIcEENS_9allocatorIcEEEEEENS8_ISB_EEE21__on_zero_shared_weakEv, symObjAddr: 0x11AD0, symBinAddr: 0x10001532C, symSize: 0x4 }
  - { offsetInCU: 0x594F3, offset: 0x100D7D, size: 0x8, addend: 0x0, symName: __ZN8nlohmann16json_abi_v3_11_36detail21output_string_adapterIcNSt3__112basic_stringIcNS3_11char_traitsIcEENS3_9allocatorIcEEEEE15write_characterEc, symObjAddr: 0x11AD4, symBinAddr: 0x100015330, symSize: 0x8 }
  - { offsetInCU: 0x59529, offset: 0x100DB3, size: 0x8, addend: 0x0, symName: __ZN8nlohmann16json_abi_v3_11_36detail21output_string_adapterIcNSt3__112basic_stringIcNS3_11char_traitsIcEENS3_9allocatorIcEEEEE16write_charactersEPKcm, symObjAddr: 0x11ADC, symBinAddr: 0x100015338, symSize: 0x8 }
  - { offsetInCU: 0x5956E, offset: 0x100DF8, size: 0x8, addend: 0x0, symName: __ZN8nlohmann16json_abi_v3_11_36detail21output_string_adapterIcNSt3__112basic_stringIcNS3_11char_traitsIcEENS3_9allocatorIcEEEEED1Ev, symObjAddr: 0x11AE4, symBinAddr: 0x100015340, symSize: 0x4 }
  - { offsetInCU: 0x5959A, offset: 0x100E24, size: 0x8, addend: 0x0, symName: __ZN8nlohmann16json_abi_v3_11_36detail21output_string_adapterIcNSt3__112basic_stringIcNS3_11char_traitsIcEENS3_9allocatorIcEEEEED0Ev, symObjAddr: 0x11AE8, symBinAddr: 0x100015344, symSize: 0x4 }
  - { offsetInCU: 0x596AA, offset: 0x100F34, size: 0x8, addend: 0x0, symName: __ZN8nlohmann16json_abi_v3_11_36detail10serializerINS0_10basic_jsonINSt3__13mapENS4_6vectorENS4_12basic_stringIcNS4_11char_traitsIcEENS4_9allocatorIcEEEEbxydSA_NS0_14adl_serializerENS6_IhNSA_IhEEEEvEEE12dump_escapedERKSC_b.cold.1, symObjAddr: 0x13A04, symBinAddr: 0x100018BCC, symSize: 0x28 }
  - { offsetInCU: 0x596C2, offset: 0x100F4C, size: 0x8, addend: 0x0, symName: __ZN8nlohmann16json_abi_v3_11_36detail10serializerINS0_10basic_jsonINSt3__13mapENS4_6vectorENS4_12basic_stringIcNS4_11char_traitsIcEENS4_9allocatorIcEEEEbxydSA_NS0_14adl_serializerENS6_IhNSA_IhEEEEvEEE12dump_escapedERKSC_b.cold.2, symObjAddr: 0x13A2C, symBinAddr: 0x100018BF4, symSize: 0x28 }
  - { offsetInCU: 0x596DA, offset: 0x100F64, size: 0x8, addend: 0x0, symName: __ZN8nlohmann16json_abi_v3_11_36detail10serializerINS0_10basic_jsonINSt3__13mapENS4_6vectorENS4_12basic_stringIcNS4_11char_traitsIcEENS4_9allocatorIcEEEEbxydSA_NS0_14adl_serializerENS6_IhNSA_IhEEEEvEEE12dump_integerIyLi0EEEvT_.cold.1, symObjAddr: 0x13A54, symBinAddr: 0x100018C1C, symSize: 0x28 }
  - { offsetInCU: 0x59714, offset: 0x100F9E, size: 0x8, addend: 0x0, symName: __ZN8nlohmann16json_abi_v3_11_36detail10serializerINS0_10basic_jsonINSt3__13mapENS4_6vectorENS4_12basic_stringIcNS4_11char_traitsIcEENS4_9allocatorIcEEEEbxydSA_NS0_14adl_serializerENS6_IhNSA_IhEEEEvEEE12dump_integerIxLi0EEEvT_.cold.1, symObjAddr: 0x13A7C, symBinAddr: 0x100018C44, symSize: 0x28 }
  - { offsetInCU: 0x5978D, offset: 0x101017, size: 0x8, addend: 0x0, symName: __ZN8nlohmann16json_abi_v3_11_36detail8to_charsIdEEPcS3_PKcT_.cold.1, symObjAddr: 0x13AA4, symBinAddr: 0x100018C6C, symSize: 0x28 }
  - { offsetInCU: 0x597A5, offset: 0x10102F, size: 0x8, addend: 0x0, symName: __ZN8nlohmann16json_abi_v3_11_36detail8to_charsIdEEPcS3_PKcT_.cold.2, symObjAddr: 0x13ACC, symBinAddr: 0x100018C94, symSize: 0x28 }
  - { offsetInCU: 0x597D3, offset: 0x10105D, size: 0x8, addend: 0x0, symName: __ZN8nlohmann16json_abi_v3_11_36detail8to_charsIdEEPcS3_PKcT_.cold.3, symObjAddr: 0x13AF4, symBinAddr: 0x100018CBC, symSize: 0x28 }
  - { offsetInCU: 0x597EB, offset: 0x101075, size: 0x8, addend: 0x0, symName: __ZN8nlohmann16json_abi_v3_11_36detail8to_charsIdEEPcS3_PKcT_.cold.4, symObjAddr: 0x13B1C, symBinAddr: 0x100018CE4, symSize: 0x28 }
  - { offsetInCU: 0x59803, offset: 0x10108D, size: 0x8, addend: 0x0, symName: __ZN8nlohmann16json_abi_v3_11_36detail8to_charsIdEEPcS3_PKcT_.cold.5, symObjAddr: 0x13B44, symBinAddr: 0x100018D0C, symSize: 0x28 }
  - { offsetInCU: 0x5981B, offset: 0x1010A5, size: 0x8, addend: 0x0, symName: __ZN8nlohmann16json_abi_v3_11_36detail9dtoa_impl13format_bufferEPciiii.cold.1, symObjAddr: 0x13B6C, symBinAddr: 0x100018D34, symSize: 0x28 }
  - { offsetInCU: 0x59833, offset: 0x1010BD, size: 0x8, addend: 0x0, symName: __ZN8nlohmann16json_abi_v3_11_36detail9dtoa_impl13format_bufferEPciiii.cold.2, symObjAddr: 0x13B94, symBinAddr: 0x100018D5C, symSize: 0x28 }
  - { offsetInCU: 0x5984B, offset: 0x1010D5, size: 0x8, addend: 0x0, symName: __ZN8nlohmann16json_abi_v3_11_36detail9dtoa_impl13format_bufferEPciiii.cold.5, symObjAddr: 0x13C0C, symBinAddr: 0x100018DD4, symSize: 0x28 }
  - { offsetInCU: 0x59863, offset: 0x1010ED, size: 0x8, addend: 0x0, symName: __ZN8nlohmann16json_abi_v3_11_36detail9dtoa_impl13format_bufferEPciiii.cold.3, symObjAddr: 0x13BBC, symBinAddr: 0x100018D84, symSize: 0x28 }
  - { offsetInCU: 0x59891, offset: 0x10111B, size: 0x8, addend: 0x0, symName: __ZN8nlohmann16json_abi_v3_11_36detail9dtoa_impl13format_bufferEPciiii.cold.4, symObjAddr: 0x13BE4, symBinAddr: 0x100018DAC, symSize: 0x28 }
  - { offsetInCU: 0x5996D, offset: 0x1011F7, size: 0x8, addend: 0x0, symName: __ZN8nlohmann16json_abi_v3_11_36detail9dtoa_impl18compute_boundariesIdEENS2_10boundariesET_.cold.1, symObjAddr: 0x13C34, symBinAddr: 0x100018DFC, symSize: 0x28 }
  - { offsetInCU: 0x59A5E, offset: 0x1012E8, size: 0x8, addend: 0x0, symName: __ZN8nlohmann16json_abi_v3_11_36detail9dtoa_impl6grisu2EPcRiS4_NS2_5diyfpES5_S5_.cold.2, symObjAddr: 0x13C84, symBinAddr: 0x100018E4C, symSize: 0x28 }
  - { offsetInCU: 0x59A76, offset: 0x101300, size: 0x8, addend: 0x0, symName: __ZN8nlohmann16json_abi_v3_11_36detail9dtoa_impl6grisu2EPcRiS4_NS2_5diyfpES5_S5_.cold.1, symObjAddr: 0x13C5C, symBinAddr: 0x100018E24, symSize: 0x28 }
  - { offsetInCU: 0x59AB4, offset: 0x10133E, size: 0x8, addend: 0x0, symName: __ZN8nlohmann16json_abi_v3_11_36detail9dtoa_impl36get_cached_power_for_binary_exponentEi.cold.1, symObjAddr: 0x13CAC, symBinAddr: 0x100018E74, symSize: 0x28 }
  - { offsetInCU: 0x59ACC, offset: 0x101356, size: 0x8, addend: 0x0, symName: __ZN8nlohmann16json_abi_v3_11_36detail9dtoa_impl36get_cached_power_for_binary_exponentEi.cold.2, symObjAddr: 0x13CD4, symBinAddr: 0x100018E9C, symSize: 0x28 }
  - { offsetInCU: 0x59AE4, offset: 0x10136E, size: 0x8, addend: 0x0, symName: __ZN8nlohmann16json_abi_v3_11_36detail9dtoa_impl36get_cached_power_for_binary_exponentEi.cold.3, symObjAddr: 0x13CFC, symBinAddr: 0x100018EC4, symSize: 0x28 }
  - { offsetInCU: 0x59AFC, offset: 0x101386, size: 0x8, addend: 0x0, symName: __ZN8nlohmann16json_abi_v3_11_36detail9dtoa_impl36get_cached_power_for_binary_exponentEi.cold.6, symObjAddr: 0x13D74, symBinAddr: 0x100018F3C, symSize: 0x28 }
  - { offsetInCU: 0x59B14, offset: 0x10139E, size: 0x8, addend: 0x0, symName: __ZN8nlohmann16json_abi_v3_11_36detail9dtoa_impl36get_cached_power_for_binary_exponentEi.cold.4, symObjAddr: 0x13D24, symBinAddr: 0x100018EEC, symSize: 0x28 }
  - { offsetInCU: 0x59B2C, offset: 0x1013B6, size: 0x8, addend: 0x0, symName: __ZN8nlohmann16json_abi_v3_11_36detail9dtoa_impl36get_cached_power_for_binary_exponentEi.cold.5, symObjAddr: 0x13D4C, symBinAddr: 0x100018F14, symSize: 0x28 }
  - { offsetInCU: 0x59B64, offset: 0x1013EE, size: 0x8, addend: 0x0, symName: __ZN8nlohmann16json_abi_v3_11_36detail9dtoa_impl16grisu2_digit_genEPcRiS4_NS2_5diyfpES5_S5_.cold.4, symObjAddr: 0x13E14, symBinAddr: 0x100018FDC, symSize: 0x28 }
  - { offsetInCU: 0x59B7C, offset: 0x101406, size: 0x8, addend: 0x0, symName: __ZN8nlohmann16json_abi_v3_11_36detail9dtoa_impl16grisu2_digit_genEPcRiS4_NS2_5diyfpES5_S5_.cold.5, symObjAddr: 0x13E3C, symBinAddr: 0x100019004, symSize: 0x28 }
  - { offsetInCU: 0x59B94, offset: 0x10141E, size: 0x8, addend: 0x0, symName: __ZN8nlohmann16json_abi_v3_11_36detail9dtoa_impl16grisu2_digit_genEPcRiS4_NS2_5diyfpES5_S5_.cold.6, symObjAddr: 0x13E64, symBinAddr: 0x10001902C, symSize: 0x28 }
  - { offsetInCU: 0x59BAC, offset: 0x101436, size: 0x8, addend: 0x0, symName: __ZN8nlohmann16json_abi_v3_11_36detail9dtoa_impl16grisu2_digit_genEPcRiS4_NS2_5diyfpES5_S5_.cold.1, symObjAddr: 0x13D9C, symBinAddr: 0x100018F64, symSize: 0x28 }
  - { offsetInCU: 0x59BC4, offset: 0x10144E, size: 0x8, addend: 0x0, symName: __ZN8nlohmann16json_abi_v3_11_36detail9dtoa_impl16grisu2_digit_genEPcRiS4_NS2_5diyfpES5_S5_.cold.2, symObjAddr: 0x13DC4, symBinAddr: 0x100018F8C, symSize: 0x28 }
  - { offsetInCU: 0x59BDC, offset: 0x101466, size: 0x8, addend: 0x0, symName: __ZN8nlohmann16json_abi_v3_11_36detail9dtoa_impl16grisu2_digit_genEPcRiS4_NS2_5diyfpES5_S5_.cold.3, symObjAddr: 0x13DEC, symBinAddr: 0x100018FB4, symSize: 0x28 }
  - { offsetInCU: 0x59BF4, offset: 0x10147E, size: 0x8, addend: 0x0, symName: __ZN8nlohmann16json_abi_v3_11_36detail9dtoa_impl16grisu2_digit_genEPcRiS4_NS2_5diyfpES5_S5_.cold.7, symObjAddr: 0x13E8C, symBinAddr: 0x100019054, symSize: 0x28 }
  - { offsetInCU: 0x59C0C, offset: 0x101496, size: 0x8, addend: 0x0, symName: __ZN8nlohmann16json_abi_v3_11_36detail9dtoa_impl12grisu2_roundEPciyyyy.cold.5, symObjAddr: 0x13F54, symBinAddr: 0x10001911C, symSize: 0x28 }
  - { offsetInCU: 0x59C24, offset: 0x1014AE, size: 0x8, addend: 0x0, symName: __ZN8nlohmann16json_abi_v3_11_36detail9dtoa_impl12grisu2_roundEPciyyyy.cold.1, symObjAddr: 0x13EB4, symBinAddr: 0x10001907C, symSize: 0x28 }
  - { offsetInCU: 0x59C3C, offset: 0x1014C6, size: 0x8, addend: 0x0, symName: __ZN8nlohmann16json_abi_v3_11_36detail9dtoa_impl12grisu2_roundEPciyyyy.cold.2, symObjAddr: 0x13EDC, symBinAddr: 0x1000190A4, symSize: 0x28 }
  - { offsetInCU: 0x59C54, offset: 0x1014DE, size: 0x8, addend: 0x0, symName: __ZN8nlohmann16json_abi_v3_11_36detail9dtoa_impl12grisu2_roundEPciyyyy.cold.3, symObjAddr: 0x13F04, symBinAddr: 0x1000190CC, symSize: 0x28 }
  - { offsetInCU: 0x59C6C, offset: 0x1014F6, size: 0x8, addend: 0x0, symName: __ZN8nlohmann16json_abi_v3_11_36detail9dtoa_impl12grisu2_roundEPciyyyy.cold.4, symObjAddr: 0x13F2C, symBinAddr: 0x1000190F4, symSize: 0x28 }
  - { offsetInCU: 0x59E30, offset: 0x1016BA, size: 0x8, addend: 0x0, symName: _OUTLINED_FUNCTION_0, symObjAddr: 0x13F7C, symBinAddr: 0x1000167EC, symSize: 0x8 }
  - { offsetInCU: 0x59E48, offset: 0x1016D2, size: 0x8, addend: 0x0, symName: _OUTLINED_FUNCTION_1, symObjAddr: 0x13F84, symBinAddr: 0x1000167F4, symSize: 0x8 }
  - { offsetInCU: 0x59E60, offset: 0x1016EA, size: 0x8, addend: 0x0, symName: _OUTLINED_FUNCTION_2, symObjAddr: 0x13F8C, symBinAddr: 0x1000167FC, symSize: 0x8 }
  - { offsetInCU: 0x59E78, offset: 0x101702, size: 0x8, addend: 0x0, symName: _OUTLINED_FUNCTION_3, symObjAddr: 0x13F94, symBinAddr: 0x100016804, symSize: 0x8 }
  - { offsetInCU: 0x39, offset: 0x10184F, size: 0x8, addend: 0x0, symName: __ZN13BaseRequester13std_out_mutexE, symObjAddr: 0x1628, symBinAddr: 0x100024000, symSize: 0x0 }
  - { offsetInCU: 0x8757, offset: 0x109F6D, size: 0x8, addend: 0x0, symName: __ZNSt3__14endlB8ue170006IcNS_11char_traitsIcEEEERNS_13basic_ostreamIT_T0_EES7_, symObjAddr: 0x614, symBinAddr: 0x100016E20, symSize: 0x90 }
  - { offsetInCU: 0x8D11, offset: 0x10A527, size: 0x8, addend: 0x0, symName: __ZNSt3__120__throw_out_of_rangeB8ue170006EPKc, symObjAddr: 0x1088, symBinAddr: 0x100017800, symSize: 0x50 }
  - { offsetInCU: 0xE600, offset: 0x10FE16, size: 0x8, addend: 0x0, symName: __ZN13BaseRequesterC2Ev, symObjAddr: 0x0, symBinAddr: 0x10001680C, symSize: 0x4 }
  - { offsetInCU: 0xE62B, offset: 0x10FE41, size: 0x8, addend: 0x0, symName: __ZN13BaseRequesterC1Ev, symObjAddr: 0x4, symBinAddr: 0x100016810, symSize: 0x4 }
  - { offsetInCU: 0xE656, offset: 0x10FE6C, size: 0x8, addend: 0x0, symName: __ZN13BaseRequester13WriteCallbackEPvmmPNSt3__112basic_stringIcNS1_11char_traitsIcEENS1_9allocatorIcEEEE, symObjAddr: 0x8, symBinAddr: 0x100016814, symSize: 0x34 }
  - { offsetInCU: 0xEDB6, offset: 0x1105CC, size: 0x8, addend: 0x0, symName: __ZN13BaseRequester10getRequestERKNSt3__112basic_stringIcNS0_11char_traitsIcEENS0_9allocatorIcEEEES8_S8_RKNS0_6vectorIS6_NS4_IS6_EEEE, symObjAddr: 0x3C, symBinAddr: 0x100016848, symSize: 0x5D8 }
  - { offsetInCU: 0x10C25, offset: 0x11243B, size: 0x8, addend: 0x0, symName: __ZN13BaseRequester11postRequestERKNSt3__112basic_stringIcNS0_11char_traitsIcEENS0_9allocatorIcEEEES8_S8_S8_RKNS0_6vectorIS6_NS4_IS6_EEEE, symObjAddr: 0x6B0, symBinAddr: 0x100016EB0, symSize: 0x578 }
  - { offsetInCU: 0x12B99, offset: 0x1143AF, size: 0x8, addend: 0x0, symName: __ZN13BaseRequester20invokePythonFunctionERKNSt3__112basic_stringIcNS0_11char_traitsIcEENS0_9allocatorIcEEEES8_, symObjAddr: 0xC28, symBinAddr: 0x100017428, symSize: 0x3C4 }
  - { offsetInCU: 0x13D9F, offset: 0x1155B5, size: 0x8, addend: 0x0, symName: __ZNKSt3__112basic_stringIcNS_11char_traitsIcEENS_9allocatorIcEEE20__throw_out_of_rangeB8ue170006Ev, symObjAddr: 0x1074, symBinAddr: 0x1000177EC, symSize: 0x14 }
  - { offsetInCU: 0x13DC9, offset: 0x1155DF, size: 0x8, addend: 0x0, symName: __ZNSt3__120__throw_out_of_rangeB8ue170006EPKc, symObjAddr: 0x1088, symBinAddr: 0x100017800, symSize: 0x50 }
  - { offsetInCU: 0x13E38, offset: 0x11564E, size: 0x8, addend: 0x0, symName: __ZNSt12out_of_rangeC1B8ue170006EPKc, symObjAddr: 0x10D8, symBinAddr: 0x100017850, symSize: 0x24 }
...
